
main.elf:     file format elf32-avr

Sections:
Idx Name          Size      VMA       LMA       File off  Algn
  0 .text         00002b3c  00000000  00000000  00000094  2**0
                  CONTENTS, ALLOC, LOAD, READONLY, CODE
  1 .data         000000c0  00800060  00002b3c  00002bd0  2**0
                  CONTENTS, ALLOC, LOAD, DATA
  2 .bss          00000038  00800120  00800120  00002c90  2**0
                  ALLOC
  3 .noinit       00000000  00800158  00800158  00002c90  2**0
                  CONTENTS
  4 .eeprom       00000000  00810000  00810000  00002c90  2**0
                  CONTENTS
  5 .stab         0000036c  00000000  00000000  00002c90  2**2
                  CONTENTS, READONLY, DEBUGGING
  6 .stabstr      00000084  00000000  00000000  00002ffc  2**0
                  CONTENTS, READONLY, DEBUGGING
  7 .debug_aranges 0000008c  00000000  00000000  00003080  2**0
                  CONTENTS, READONLY, DEBUGGING
  8 .debug_pubnames 000004d0  00000000  00000000  0000310c  2**0
                  CONTENTS, READONLY, DEBUGGING
  9 .debug_info   00001c27  00000000  00000000  000035dc  2**0
                  CONTENTS, READONLY, DEBUGGING
 10 .debug_abbrev 000006e8  00000000  00000000  00005203  2**0
                  CONTENTS, READONLY, DEBUGGING
 11 .debug_line   000017a0  00000000  00000000  000058eb  2**0
                  CONTENTS, READONLY, DEBUGGING
 12 .debug_str    00000801  00000000  00000000  0000708b  2**0
                  CONTENTS, READONLY, DEBUGGING
Disassembly of section .text:

00000000 <__vectors>:
       0:	0c 94 d2 03 	jmp	0x7a4 <__init>
       4:	0c 94 ba 05 	jmp	0xb74 <__vector_1>
       8:	0c 94 ed 03 	jmp	0x7da <__bad_interrupt>
       c:	0c 94 ed 03 	jmp	0x7da <__bad_interrupt>
      10:	0c 94 ed 03 	jmp	0x7da <__bad_interrupt>
      14:	0c 94 ed 03 	jmp	0x7da <__bad_interrupt>
      18:	0c 94 ed 03 	jmp	0x7da <__bad_interrupt>
      1c:	0c 94 ed 03 	jmp	0x7da <__bad_interrupt>
      20:	0c 94 ed 03 	jmp	0x7da <__bad_interrupt>
      24:	0c 94 ed 03 	jmp	0x7da <__bad_interrupt>
      28:	0c 94 ed 03 	jmp	0x7da <__bad_interrupt>
      2c:	0c 94 ed 03 	jmp	0x7da <__bad_interrupt>
      30:	0c 94 ed 03 	jmp	0x7da <__bad_interrupt>
      34:	0c 94 ed 03 	jmp	0x7da <__bad_interrupt>
      38:	0c 94 ed 03 	jmp	0x7da <__bad_interrupt>
      3c:	0c 94 ed 03 	jmp	0x7da <__bad_interrupt>
      40:	0c 94 ed 03 	jmp	0x7da <__bad_interrupt>
      44:	0c 94 ed 03 	jmp	0x7da <__bad_interrupt>
      48:	0c 94 ed 03 	jmp	0x7da <__bad_interrupt>
      4c:	0c 94 ed 03 	jmp	0x7da <__bad_interrupt>
      50:	0c 94 ed 03 	jmp	0x7da <__bad_interrupt>

00000054 <__ctors_end>:
      54:	3a 04       	cpc	r3, r10
      56:	40 10       	cpse	r4, r0
      58:	12 14       	cp	r1, r2
      5a:	32 b6       	in	r3, 0x32	; 50
      5c:	17 16       	cp	r1, r23
      5e:	18 04       	cpc	r1, r8
      60:	19 03       	fmul	r17, r17
      62:	1a 7b       	andi	r17, 0xBA	; 186
      64:	03 0a       	sbc	r0, r19
      66:	0c 00       	.word	0x000c	; ????
      68:	3e 00       	.word	0x003e	; ????
      6a:	70 00       	.word	0x0070	; ????
      6c:	71 00       	.word	0x0071	; ????
      6e:	72 11       	cpse	r23, r2
      70:	73 00       	.word	0x0073	; ????
      72:	a2 02       	muls	r26, r18
      74:	11 00       	.word	0x0011	; ????
      76:	7a 20       	and	r7, r10
      78:	7b 1c       	adc	r7, r11
      7a:	7c 28       	or	r7, r12
      7c:	7d 3c       	cpi	r23, 0xCD	; 205
      7e:	7e 55       	subi	r23, 0x5E	; 94
      80:	7f 68       	ori	r23, 0x8F	; 143
      82:	80 76       	andi	r24, 0x60	; 96
      84:	81 80       	ldd	r8, Z+1	; 0x01
      86:	82 88       	ldd	r8, Z+18	; 0x12
      88:	83 8f       	std	Z+27, r24	; 0x1b
      8a:	84 96       	adiw	r24, 0x24	; 36
      8c:	85 a3       	std	Z+37, r24	; 0x25
      8e:	86 af       	std	Z+62, r24	; 0x3e
      90:	87 c4       	rjmp	.+2318   	; 0x9a0 <rdOV7670Reg+0x1c>
      92:	88 d7       	rcall	.+3856   	; 0xfa4 <disp_image+0x328>
      94:	89 e8       	ldi	r24, 0x89	; 137
      96:	13 e0       	ldi	r17, 0x03	; 3
      98:	00 00       	nop
      9a:	10 00       	.word	0x0010	; ????
      9c:	0d 00       	.word	0x000d	; ????
      9e:	14 20       	and	r1, r4
      a0:	a5 05       	cpc	r26, r5
      a2:	ab 07       	cpc	r26, r27
      a4:	24 75       	andi	r18, 0x54	; 84
      a6:	25 63       	ori	r18, 0x35	; 53
      a8:	26 a5       	ldd	r18, Z+46	; 0x2e
      aa:	9f 78       	andi	r25, 0x8F	; 143
      ac:	a0 68       	ori	r26, 0x80	; 128
      ae:	a1 03       	fmuls	r18, r17
      b0:	a6 df       	rcall	.-180    	; 0xfffffffe <__eeprom_end+0xff7efffe>
      b2:	a7 df       	rcall	.-178    	; 0x2 <__zero_reg__+0x1>
      b4:	a8 f0       	brcs	.+42     	; 0xe0 <__ctors_end+0x8c>
      b6:	a9 90       	ld	r10, Y+
      b8:	aa 94       	dec	r10
      ba:	13 e5       	ldi	r17, 0x53	; 83
      bc:	0e 61       	ori	r16, 0x1E	; 30
      be:	0f 4b       	sbci	r16, 0xBF	; 191
      c0:	16 02       	muls	r17, r22
      c2:	1e 37       	cpi	r17, 0x7E	; 126
      c4:	21 02       	muls	r18, r17
      c6:	22 91       	ld	r18, -Z
      c8:	29 07       	cpc	r18, r25
      ca:	33 0b       	sbc	r19, r19
      cc:	35 0b       	sbc	r19, r21
      ce:	37 1d       	adc	r19, r7
      d0:	38 71       	andi	r19, 0x18	; 24
      d2:	39 2a       	or	r3, r25
      d4:	3c 78       	andi	r19, 0x8C	; 140
      d6:	4d 40       	sbci	r20, 0x0D	; 13
      d8:	4e 20       	and	r4, r14
      da:	69 0c       	add	r6, r9
      dc:	6b 40       	sbci	r22, 0x0B	; 11
      de:	74 19       	sub	r23, r4
      e0:	8d 4f       	sbci	r24, 0xFD	; 253
      e2:	8e 00       	.word	0x008e	; ????
      e4:	8f 00       	.word	0x008f	; ????
      e6:	90 00       	.word	0x0090	; ????
      e8:	91 00       	.word	0x0091	; ????
      ea:	92 00       	.word	0x0092	; ????
      ec:	96 00       	.word	0x0096	; ????
      ee:	9a 80       	ldd	r9, Y+2	; 0x02
      f0:	b0 84       	ldd	r11, Z+8	; 0x08
      f2:	b1 0c       	add	r11, r1
      f4:	b2 0e       	add	r11, r18
      f6:	b3 82       	std	Z+3, r11	; 0x03
      f8:	b8 0a       	sbc	r11, r24
      fa:	43 14       	cp	r4, r3
      fc:	44 f0       	brlt	.+16     	; 0x10e <__ctors_end+0xba>
      fe:	45 34       	cpi	r20, 0x45	; 69
     100:	46 58       	subi	r20, 0x86	; 134
     102:	47 28       	or	r4, r7
     104:	48 3a       	cpi	r20, 0xA8	; 168
     106:	59 88       	ldd	r5, Y+17	; 0x11
     108:	5a 88       	ldd	r5, Y+18	; 0x12
     10a:	5b 44       	sbci	r21, 0x4B	; 75
     10c:	5c 67       	ori	r21, 0x7C	; 124
     10e:	5d 49       	sbci	r21, 0x9D	; 157
     110:	5e 0e       	add	r5, r30
     112:	64 04       	cpc	r6, r4
     114:	65 20       	and	r6, r5
     116:	66 05       	cpc	r22, r6
     118:	94 04       	cpc	r9, r4
     11a:	95 08       	sbc	r9, r5
     11c:	6c 0a       	sbc	r6, r28
     11e:	6d 55       	subi	r22, 0x5D	; 93
     120:	6e 11       	cpse	r22, r14
     122:	6f 9f       	mul	r22, r31
     124:	6a 40       	sbci	r22, 0x0A	; 10
     126:	01 40       	sbci	r16, 0x01	; 1
     128:	02 40       	sbci	r16, 0x02	; 2
     12a:	13 e7       	ldi	r17, 0x73	; 115
     12c:	15 00       	.word	0x0015	; ????
     12e:	4f 80       	ldd	r4, Y+7	; 0x07
     130:	50 80       	ld	r5, Z
     132:	51 00       	.word	0x0051	; ????
     134:	52 22       	and	r5, r18
     136:	53 5e       	subi	r21, 0xE3	; 227
     138:	54 80       	ldd	r5, Z+4	; 0x04
     13a:	58 9e       	mul	r5, r24
     13c:	41 08       	sbc	r4, r1
     13e:	3f 00       	.word	0x003f	; ????
     140:	75 05       	cpc	r23, r5
     142:	76 e1       	ldi	r23, 0x16	; 22
     144:	4c 00       	.word	0x004c	; ????
     146:	77 01       	movw	r14, r14
     148:	3d c2       	rjmp	.+1146   	; 0x5c4 <english+0x410>
     14a:	4b 09       	sbc	r20, r11
     14c:	c9 cc       	rjmp	.-1646   	; 0xfffffae0 <__eeprom_end+0xff7efae0>
     14e:	41 38       	cpi	r20, 0x81	; 129
     150:	56 40       	sbci	r21, 0x06	; 6
     152:	34 11       	cpse	r19, r4
     154:	3b 02       	muls	r19, r27
     156:	a4 89       	ldd	r26, Z+20	; 0x14
     158:	96 00       	.word	0x0096	; ????
     15a:	97 30       	cpi	r25, 0x07	; 7
     15c:	98 20       	and	r9, r8
     15e:	99 30       	cpi	r25, 0x09	; 9
     160:	9a 84       	ldd	r9, Y+10	; 0x0a
     162:	9b 29       	or	r25, r11
     164:	9c 03       	fmulsu	r17, r20
     166:	9d 4c       	sbci	r25, 0xCD	; 205
     168:	9e 3f       	cpi	r25, 0xFE	; 254
     16a:	78 04       	cpc	r7, r8
     16c:	79 01       	movw	r14, r18
     16e:	c8 f0       	brcs	.+50     	; 0x1a2 <__ctors_end+0x14e>
     170:	79 0f       	add	r23, r25
     172:	c8 00       	.word	0x00c8	; ????
     174:	79 10       	cpse	r7, r9
     176:	c8 7e       	andi	r28, 0xE8	; 232
     178:	79 0a       	sbc	r7, r25
     17a:	c8 80       	ld	r12, Y
     17c:	79 0b       	sbc	r23, r25
     17e:	c8 01       	movw	r24, r16
     180:	79 0c       	add	r7, r9
     182:	c8 0f       	add	r28, r24
     184:	79 0d       	add	r23, r9
     186:	c8 20       	and	r12, r8
     188:	79 09       	sbc	r23, r9
     18a:	c8 80       	ld	r12, Y
     18c:	79 02       	muls	r23, r25
     18e:	c8 c0       	rjmp	.+400    	; 0x320 <english+0x16c>
     190:	79 03       	fmul	r23, r17
     192:	c8 40       	sbci	r28, 0x08	; 8
     194:	79 05       	cpc	r23, r9
     196:	c8 30       	cpi	r28, 0x08	; 8
     198:	79 26       	eor	r7, r25
     19a:	09 03       	fmul	r16, r17
     19c:	55 00       	.word	0x0055	; ????
     19e:	56 40       	sbci	r21, 0x06	; 6
     1a0:	3b 42       	sbci	r19, 0x2B	; 43
	...

000001b4 <english>:
	...
     1c8:	18 3c 3c 3c 18 18 00 18 18 00 00 00 00 00 00 00     .<<<............
     1d8:	66 66 66 00 00 00 00 00 00 00 00 00 00 00 00 00     fff.............
     1e8:	36 36 7f 36 36 36 7f 36 36 00 00 00 00 00 18 18     66.666.66.......
     1f8:	3c 66 60 30 18 0c 06 66 3c 18 18 00 00 00 00 70     <f`0...f<......p
     208:	d8 da 76 0c 18 30 6e 5b 1b 0e 00 00 00 00 00 00     ..v..0n[........
     218:	38 6c 6c 38 60 6f 66 66 3b 00 00 00 00 00 00 00     8ll8`off;.......
     228:	18 18 18 00 00 00 00 00 00 00 00 00 00 00 00 00     ................
     238:	0c 18 18 30 30 30 30 30 18 18 0c 00 00 00 00 00     ...00000........
     248:	30 18 18 0c 0c 0c 0c 0c 18 18 30 00 00 00 00 00     0.........0.....
     258:	00 00 36 1c 7f 1c 36 00 00 00 00 00 00 00 00 00     ..6...6.........
     268:	00 00 18 18 7e 18 18 00 00 00 00 00 00 00 00 00     ....~...........
     278:	00 00 00 00 00 00 1c 1c 0c 18 00 00 00 00 00 00     ................
     288:	00 00 00 7e 00 00 00 00 00 00 00 00 00 00 00 00     ...~............
     298:	00 00 00 00 00 00 1c 1c 00 00 00 00 00 00 00 06     ................
     2a8:	06 0c 0c 18 18 30 30 60 60 00 00 00 00 00 00 1e     .....00``.......
     2b8:	33 37 37 33 3b 3b 33 1e 00 00 00 00 00 00 00 0c     3773;;3.........
     2c8:	1c 7c 0c 0c 0c 0c 0c 0c 00 00 00 00 00 00 00 3c     .|.............<
     2d8:	66 66 06 0c 18 30 60 7e 00 00 00 00 00 00 00 3c     ff...0`~.......<
     2e8:	66 66 06 1c 06 66 66 3c 00 00 00 00 00 00 00 30     ff...ff<.......0
     2f8:	30 36 36 36 66 7f 06 06 00 00 00 00 00 00 00 7e     0666f..........~
     308:	60 60 60 7c 06 06 0c 78 00 00 00 00 00 00 00 1c     ```|...x........
     318:	18 30 7c 66 66 66 66 3c 00 00 00 00 00 00 00 7e     .0|ffff<.......~
     328:	06 0c 0c 18 18 30 30 30 00 00 00 00 00 00 00 3c     .....000.......<
     338:	66 66 76 3c 6e 66 66 3c 00 00 00 00 00 00 00 3c     ffv<nff<.......<
     348:	66 66 66 66 3e 0c 18 38 00 00 00 00 00 00 00 00     ffff>..8........
     358:	00 1c 1c 00 00 00 1c 1c 00 00 00 00 00 00 00 00     ................
     368:	00 1c 1c 00 00 00 1c 1c 0c 18 00 00 00 00 00 06     ................
     378:	0c 18 30 60 30 18 0c 06 00 00 00 00 00 00 00 00     ..0`0...........
     388:	00 00 7e 00 7e 00 00 00 00 00 00 00 00 00 00 60     ..~.~..........`
     398:	30 18 0c 06 0c 18 30 60 00 00 00 00 00 00 00 3c     0.....0`.......<
     3a8:	66 66 0c 18 18 00 18 18 00 00 00 00 00 00 00 7e     ff.............~
     3b8:	c3 c3 cf db db cf c0 7f 00 00 00 00 00 00 00 18     ................
     3c8:	3c 66 66 66 7e 66 66 66 00 00 00 00 00 00 00 7c     <fff~fff.......|
     3d8:	66 66 66 7c 66 66 66 7c 00 00 00 00 00 00 00 3c     fff|fff|.......<
     3e8:	66 66 60 60 60 66 66 3c 00 00 00 00 00 00 00 78     ff```ff<.......x
     3f8:	6c 66 66 66 66 66 6c 78 00 00 00 00 00 00 00 7e     lffffflx.......~
     408:	60 60 60 7c 60 60 60 7e 00 00 00 00 00 00 00 7e     ```|```~.......~
     418:	60 60 60 7c 60 60 60 60 00 00 00 00 00 00 00 3c     ```|````.......<
     428:	66 66 60 60 6e 66 66 3e 00 00 00 00 00 00 00 66     ff``nff>.......f
     438:	66 66 66 7e 66 66 66 66 00 00 00 00 00 00 00 3c     fff~ffff.......<
     448:	18 18 18 18 18 18 18 3c 00 00 00 00 00 00 1e 0c     .......<........
     458:	0c 0c 0c 0c cc cc cc 78 00 00 00 00 00 00 00 66     .......x.......f
     468:	66 6c 6c 78 6c 6c 66 66 00 00 00 00 00 00 00 60     fllxllff.......`
     478:	60 60 60 60 60 60 60 7e 00 00 00 00 00 00 00 63     ```````~.......c
     488:	63 77 6b 6b 6b 63 63 63 00 00 00 00 00 00 00 63     cwkkkccc.......c
     498:	63 73 7b 6f 67 63 63 63 00 00 00 00 00 00 00 3c     cs{ogccc.......<
     4a8:	66 66 66 66 66 66 66 3c 00 00 00 00 00 00 00 7c     fffffff<.......|
     4b8:	66 66 66 7c 60 60 60 60 00 00 00 00 00 00 00 3c     fff|````.......<
     4c8:	66 66 66 66 66 66 66 3c 0c 06 00 00 00 00 00 7c     fffffff<.......|
     4d8:	66 66 66 7c 6c 66 66 66 00 00 00 00 00 00 00 3c     fff|lfff.......<
     4e8:	66 60 30 18 0c 06 66 3c 00 00 00 00 00 00 00 7e     f`0...f<.......~
     4f8:	18 18 18 18 18 18 18 18 00 00 00 00 00 00 00 66     ...............f
     508:	66 66 66 66 66 66 66 3c 00 00 00 00 00 00 00 66     fffffff<.......f
     518:	66 66 66 66 66 66 3c 18 00 00 00 00 00 00 00 63     ffffff<........c
     528:	63 63 6b 6b 6b 36 36 36 00 00 00 00 00 00 00 66     cckkk666.......f
     538:	66 34 18 18 2c 66 66 66 00 00 00 00 00 00 00 66     f4..,fff.......f
     548:	66 66 66 3c 18 18 18 18 00 00 00 00 00 00 00 7e     fff<...........~
     558:	06 06 0c 18 30 60 60 7e 00 00 00 00 00 00 00 3c     ....0``~.......<
     568:	30 30 30 30 30 30 30 30 30 30 3c 00 00 00 00 60     0000000000<....`
     578:	60 30 30 18 18 0c 0c 06 06 00 00 00 00 00 00 3c     `00............<
     588:	0c 0c 0c 0c 0c 0c 0c 0c 0c 0c 3c 00 00 18 3c 66     ..........<...<f
	...
     5b0:	00 00 ff 00 00 38 18 0c 00 00 00 00 00 00 00 00     .....8..........
	...
     5c8:	00 3c 06 06 3e 66 66 3e 00 00 00 00 00 00 00 60     .<..>ff>.......`
     5d8:	60 7c 66 66 66 66 66 7c 00 00 00 00 00 00 00 00     `|fffff|........
     5e8:	00 3c 66 60 60 60 66 3c 00 00 00 00 00 00 00 06     .<f```f<........
     5f8:	06 3e 66 66 66 66 66 3e 00 00 00 00 00 00 00 00     .>fffff>........
     608:	00 3c 66 66 7e 60 60 3c 00 00 00 00 00 00 00 1e     .<ff~``<........
     618:	30 30 30 7e 30 30 30 30 00 00 00 00 00 00 00 00     000~0000........
     628:	00 3e 66 66 66 66 66 3e 06 06 7c 00 00 00 00 60     .>fffff>..|....`
     638:	60 7c 66 66 66 66 66 66 00 00 00 00 00 00 18 18     `|ffffff........
     648:	00 78 18 18 18 18 18 7e 00 00 00 00 00 00 0c 0c     .x.....~........
     658:	00 3c 0c 0c 0c 0c 0c 0c 0c 0c 78 00 00 00 00 60     .<........x....`
     668:	60 66 66 6c 78 6c 66 66 00 00 00 00 00 00 00 78     `fflxlff.......x
     678:	18 18 18 18 18 18 18 7e 00 00 00 00 00 00 00 00     .......~........
     688:	00 7e 6b 6b 6b 6b 6b 63 00 00 00 00 00 00 00 00     .~kkkkkc........
     698:	00 7c 66 66 66 66 66 66 00 00 00 00 00 00 00 00     .|ffffff........
     6a8:	00 3c 66 66 66 66 66 3c 00 00 00 00 00 00 00 00     .<fffff<........
     6b8:	00 7c 66 66 66 66 66 7c 60 60 60 00 00 00 00 00     .|fffff|```.....
     6c8:	00 3e 66 66 66 66 66 3e 06 06 06 00 00 00 00 00     .>fffff>........
     6d8:	00 66 6e 70 60 60 60 60 00 00 00 00 00 00 00 00     .fnp````........
     6e8:	00 3e 60 60 3c 06 06 7c 00 00 00 00 00 00 00 30     .>``<..|.......0
     6f8:	30 7e 30 30 30 30 30 1e 00 00 00 00 00 00 00 00     0~00000.........
     708:	00 66 66 66 66 66 66 3e 00 00 00 00 00 00 00 00     .ffffff>........
     718:	00 66 66 66 66 66 3c 18 00 00 00 00 00 00 00 00     .fffff<.........
     728:	00 63 6b 6b 6b 6b 36 36 00 00 00 00 00 00 00 00     .ckkkk66........
     738:	00 66 66 3c 18 3c 66 66 00 00 00 00 00 00 00 00     .ff<.<ff........
     748:	00 66 66 66 66 66 66 3c 0c 18 f0 00 00 00 00 00     .ffffff<........
     758:	00 7e 06 0c 18 30 60 7e 00 00 00 00 00 00 00 0c     .~...0`~........
     768:	18 18 18 30 60 30 18 18 18 0c 00 00 00 00 00 18     ...0`0..........
     778:	18 18 18 18 18 18 18 18 18 18 18 00 00 00 00 30     ...............0
     788:	18 18 18 0c 06 0c 18 18 18 30 00 00 00 00 00 71     .........0.....q
     798:	db 8e 00 00 00 00 00 00 00 00 00 00                 ............

000007a4 <__init>:
     7a4:	11 24       	eor	r1, r1
     7a6:	1f be       	out	0x3f, r1	; 63
     7a8:	cf e5       	ldi	r28, 0x5F	; 95
     7aa:	d8 e0       	ldi	r29, 0x08	; 8
     7ac:	de bf       	out	0x3e, r29	; 62
     7ae:	cd bf       	out	0x3d, r28	; 61

000007b0 <__do_copy_data>:
     7b0:	11 e0       	ldi	r17, 0x01	; 1
     7b2:	a0 e6       	ldi	r26, 0x60	; 96
     7b4:	b0 e0       	ldi	r27, 0x00	; 0
     7b6:	ec e3       	ldi	r30, 0x3C	; 60
     7b8:	fb e2       	ldi	r31, 0x2B	; 43
     7ba:	02 c0       	rjmp	.+4      	; 0x7c0 <.do_copy_data_start>

000007bc <.do_copy_data_loop>:
     7bc:	05 90       	lpm	r0, Z+
     7be:	0d 92       	st	X+, r0

000007c0 <.do_copy_data_start>:
     7c0:	a0 32       	cpi	r26, 0x20	; 32
     7c2:	b1 07       	cpc	r27, r17
     7c4:	d9 f7       	brne	.-10     	; 0x7bc <.do_copy_data_loop>

000007c6 <__do_clear_bss>:
     7c6:	11 e0       	ldi	r17, 0x01	; 1
     7c8:	a0 e2       	ldi	r26, 0x20	; 32
     7ca:	b1 e0       	ldi	r27, 0x01	; 1
     7cc:	01 c0       	rjmp	.+2      	; 0x7d0 <.do_clear_bss_start>

000007ce <.do_clear_bss_loop>:
     7ce:	1d 92       	st	X+, r1

000007d0 <.do_clear_bss_start>:
     7d0:	a8 35       	cpi	r26, 0x58	; 88
     7d2:	b1 07       	cpc	r27, r17
     7d4:	e1 f7       	brne	.-8      	; 0x7ce <.do_clear_bss_loop>
     7d6:	0c 94 e7 07 	jmp	0xfce <main>

000007da <__bad_interrupt>:
     7da:	0c 94 00 00 	jmp	0x0 <__vectors>

000007de <InitSCCB>:
-----------------------------------------------
*/
void InitSCCB(void)
{
	SCCB_DDR|=(1<<SCCB_SIO_C)|(1<<SCCB_SIO_D);
     7de:	87 b3       	in	r24, 0x17	; 23
     7e0:	86 60       	ori	r24, 0x06	; 6
     7e2:	87 bb       	out	0x17, r24	; 23
	SCCB_PORT|=(1<<SCCB_SIO_C)|(1<<SCCB_SIO_D);
     7e4:	88 b3       	in	r24, 0x18	; 24
     7e6:	86 60       	ori	r24, 0x06	; 6
     7e8:	88 bb       	out	0x18, r24	; 24
     7ea:	08 95       	ret

000007ec <startSCCB>:
}
/*
-----------------------------------------------
   功能: start命令,SCCB的起始信号
   参数: 无
 返回值: 无
-----------------------------------------------
*/
void startSCCB(void)
{
	SIO_D_SET;     //数据线高电平
     7ec:	c2 9a       	sbi	0x18, 2	; 24
    delay_us(100);
     7ee:	84 e6       	ldi	r24, 0x64	; 100
     7f0:	90 e0       	ldi	r25, 0x00	; 0
     7f2:	0e 94 d6 10 	call	0x21ac <delay_us>

    SIO_C_SET;	   //在时钟线高的时候数据线由高至低
     7f6:	c1 9a       	sbi	0x18, 1	; 24
    delay_us(100);
     7f8:	84 e6       	ldi	r24, 0x64	; 100
     7fa:	90 e0       	ldi	r25, 0x00	; 0
     7fc:	0e 94 d6 10 	call	0x21ac <delay_us>
 
    SIO_D_CLR;
     800:	c2 98       	cbi	0x18, 2	; 24
    delay_us(100);
     802:	84 e6       	ldi	r24, 0x64	; 100
     804:	90 e0       	ldi	r25, 0x00	; 0
     806:	0e 94 d6 10 	call	0x21ac <delay_us>

    SIO_C_CLR;	 //数据线恢复低电平，单操作函数必要
     80a:	c1 98       	cbi	0x18, 1	; 24
    delay_us(100);
     80c:	84 e6       	ldi	r24, 0x64	; 100
     80e:	90 e0       	ldi	r25, 0x00	; 0
     810:	0e 94 d6 10 	call	0x21ac <delay_us>
     814:	08 95       	ret

00000816 <stopSCCB>:


}
/*
-----------------------------------------------
   功能: stop命令,SCCB的停止信号
   参数: 无
 返回值: 无
-----------------------------------------------
*/
void stopSCCB(void)
{
	SIO_D_CLR;
     816:	c2 98       	cbi	0x18, 2	; 24
    delay_us(100);
     818:	84 e6       	ldi	r24, 0x64	; 100
     81a:	90 e0       	ldi	r25, 0x00	; 0
     81c:	0e 94 d6 10 	call	0x21ac <delay_us>
 
    SIO_C_SET;
     820:	c1 9a       	sbi	0x18, 1	; 24
    delay_us(100);
     822:	84 e6       	ldi	r24, 0x64	; 100
     824:	90 e0       	ldi	r25, 0x00	; 0
     826:	0e 94 d6 10 	call	0x21ac <delay_us>
  

    SIO_D_SET;
     82a:	c2 9a       	sbi	0x18, 2	; 24
    delay_us(100);
     82c:	84 e6       	ldi	r24, 0x64	; 100
     82e:	90 e0       	ldi	r25, 0x00	; 0
     830:	0e 94 d6 10 	call	0x21ac <delay_us>
     834:	08 95       	ret

00000836 <noAck>:
 //   SCCB_DDR&= ~(SCCB_SIO_D);

}

/*
-----------------------------------------------
   功能: noAck,用于连续读取中的最后一个结束周期
   参数: 无
 返回值: 无
-----------------------------------------------
*/
void noAck(void)
{
	
	SIO_D_SET;
     836:	c2 9a       	sbi	0x18, 2	; 24
	delay_us(100);
     838:	84 e6       	ldi	r24, 0x64	; 100
     83a:	90 e0       	ldi	r25, 0x00	; 0
     83c:	0e 94 d6 10 	call	0x21ac <delay_us>
	
	SIO_C_SET;
     840:	c1 9a       	sbi	0x18, 1	; 24
	delay_us(100);
     842:	84 e6       	ldi	r24, 0x64	; 100
     844:	90 e0       	ldi	r25, 0x00	; 0
     846:	0e 94 d6 10 	call	0x21ac <delay_us>
	
	SIO_C_CLR;
     84a:	c1 98       	cbi	0x18, 1	; 24
	delay_us(100);
     84c:	84 e6       	ldi	r24, 0x64	; 100
     84e:	90 e0       	ldi	r25, 0x00	; 0
     850:	0e 94 d6 10 	call	0x21ac <delay_us>
	
	SIO_D_CLR;
     854:	c2 98       	cbi	0x18, 2	; 24
	delay_us(100);
     856:	84 e6       	ldi	r24, 0x64	; 100
     858:	90 e0       	ldi	r25, 0x00	; 0
     85a:	0e 94 d6 10 	call	0x21ac <delay_us>
     85e:	08 95       	ret

00000860 <SCCBwriteByte>:

}

/*
-----------------------------------------------
   功能: 写入一个字节的数据到SCCB
   参数: 写入数据
 返回值: 发送成功返回1，发送失败返回0
-----------------------------------------------
*/
uchar SCCBwriteByte(uchar m_data)
{
     860:	0f 93       	push	r16
     862:	1f 93       	push	r17
     864:	cf 93       	push	r28
     866:	df 93       	push	r29
     868:	08 2f       	mov	r16, r24
     86a:	c0 e0       	ldi	r28, 0x00	; 0
     86c:	d0 e0       	ldi	r29, 0x00	; 0
     86e:	17 e0       	ldi	r17, 0x07	; 7
	unsigned char j,tem;

	for(j=0;j<8;j++) //循环8次发送数据
	{
		if((m_data<<j)&0x80)
     870:	80 2f       	mov	r24, r16
     872:	99 27       	eor	r25, r25
     874:	0c 2e       	mov	r0, r28
     876:	02 c0       	rjmp	.+4      	; 0x87c <SCCBwriteByte+0x1c>
     878:	88 0f       	add	r24, r24
     87a:	99 1f       	adc	r25, r25
     87c:	0a 94       	dec	r0
     87e:	e2 f7       	brpl	.-8      	; 0x878 <SCCBwriteByte+0x18>
     880:	87 ff       	sbrs	r24, 7
     882:	02 c0       	rjmp	.+4      	; 0x888 <SCCBwriteByte+0x28>
		{
			SIO_D_SET;
     884:	c2 9a       	sbi	0x18, 2	; 24
     886:	01 c0       	rjmp	.+2      	; 0x88a <SCCBwriteByte+0x2a>
		}
		else
		{
			SIO_D_CLR;
     888:	c2 98       	cbi	0x18, 2	; 24
		}
		delay_us(100);
     88a:	84 e6       	ldi	r24, 0x64	; 100
     88c:	90 e0       	ldi	r25, 0x00	; 0
     88e:	0e 94 d6 10 	call	0x21ac <delay_us>
		SIO_C_SET;
     892:	c1 9a       	sbi	0x18, 1	; 24
		delay_us(100);
     894:	84 e6       	ldi	r24, 0x64	; 100
     896:	90 e0       	ldi	r25, 0x00	; 0
     898:	0e 94 d6 10 	call	0x21ac <delay_us>
		SIO_C_CLR;
     89c:	c1 98       	cbi	0x18, 1	; 24
		delay_us(100);
     89e:	84 e6       	ldi	r24, 0x64	; 100
     8a0:	90 e0       	ldi	r25, 0x00	; 0
     8a2:	0e 94 d6 10 	call	0x21ac <delay_us>
     8a6:	11 50       	subi	r17, 0x01	; 1
     8a8:	21 96       	adiw	r28, 0x01	; 1
     8aa:	17 ff       	sbrs	r17, 7
     8ac:	e1 cf       	rjmp	.-62     	; 0x870 <SCCBwriteByte+0x10>

	}
	delay_us(100);
     8ae:	84 e6       	ldi	r24, 0x64	; 100
     8b0:	90 e0       	ldi	r25, 0x00	; 0
     8b2:	0e 94 d6 10 	call	0x21ac <delay_us>
	
	SIO_D_IN;/*设置SDA为输入*/
     8b6:	ba 98       	cbi	0x17, 2	; 23
	delay_us(100);
     8b8:	84 e6       	ldi	r24, 0x64	; 100
     8ba:	90 e0       	ldi	r25, 0x00	; 0
     8bc:	0e 94 d6 10 	call	0x21ac <delay_us>
	SIO_C_SET;
     8c0:	c1 9a       	sbi	0x18, 1	; 24
	delay_us(1000);
     8c2:	88 ee       	ldi	r24, 0xE8	; 232
     8c4:	93 e0       	ldi	r25, 0x03	; 3
     8c6:	0e 94 d6 10 	call	0x21ac <delay_us>
	if(SIO_D_STATE)
     8ca:	b2 9b       	sbis	0x16, 2	; 22
     8cc:	02 c0       	rjmp	.+4      	; 0x8d2 <SCCBwriteByte+0x72>
	{
		tem=0;   //SDA=1发送失败，返回0
     8ce:	c0 e0       	ldi	r28, 0x00	; 0
     8d0:	01 c0       	rjmp	.+2      	; 0x8d4 <SCCBwriteByte+0x74>
	}
	else
	{
		tem=1;   //SDA=0发送成功，返回1
     8d2:	c1 e0       	ldi	r28, 0x01	; 1
	}
	SIO_C_CLR;
     8d4:	c1 98       	cbi	0x18, 1	; 24
	delay_us(100);	
     8d6:	84 e6       	ldi	r24, 0x64	; 100
     8d8:	90 e0       	ldi	r25, 0x00	; 0
     8da:	0e 94 d6 10 	call	0x21ac <delay_us>
    SIO_D_OUT;/*设置SDA为输出*/
     8de:	ba 9a       	sbi	0x17, 2	; 23

	return(tem);  
}
     8e0:	8c 2f       	mov	r24, r28
     8e2:	99 27       	eor	r25, r25
     8e4:	df 91       	pop	r29
     8e6:	cf 91       	pop	r28
     8e8:	1f 91       	pop	r17
     8ea:	0f 91       	pop	r16
     8ec:	08 95       	ret

000008ee <SCCBreadByte>:

/*
-----------------------------------------------
   功能: 一个字节数据读取并且返回
   参数: 无
 返回值: 读取到的数据
-----------------------------------------------
*/
uchar SCCBreadByte(void)
{
     8ee:	1f 93       	push	r17
     8f0:	cf 93       	push	r28
	unsigned char read,j;
	read=0x00;
     8f2:	c0 e0       	ldi	r28, 0x00	; 0
	
	SIO_D_IN;/*设置SDA为输入*/
     8f4:	ba 98       	cbi	0x17, 2	; 23
	delay_us(100);
     8f6:	84 e6       	ldi	r24, 0x64	; 100
     8f8:	90 e0       	ldi	r25, 0x00	; 0
     8fa:	0e 94 d6 10 	call	0x21ac <delay_us>
	for(j=8;j>0;j--) //循环8次接收数据
     8fe:	18 e0       	ldi	r17, 0x08	; 8
	{		     
		delay_us(100);
     900:	84 e6       	ldi	r24, 0x64	; 100
     902:	90 e0       	ldi	r25, 0x00	; 0
     904:	0e 94 d6 10 	call	0x21ac <delay_us>
		SIO_C_SET;
     908:	c1 9a       	sbi	0x18, 1	; 24
		delay_us(100);
     90a:	84 e6       	ldi	r24, 0x64	; 100
     90c:	90 e0       	ldi	r25, 0x00	; 0
     90e:	0e 94 d6 10 	call	0x21ac <delay_us>
		read=read<<1;
     912:	cc 0f       	add	r28, r28
		if(SIO_D_STATE) 
     914:	b2 99       	sbic	0x16, 2	; 22
		{
			read=read+1;
     916:	cf 5f       	subi	r28, 0xFF	; 255
		}
		SIO_C_CLR;
     918:	c1 98       	cbi	0x18, 1	; 24
		delay_us(100);
     91a:	84 e6       	ldi	r24, 0x64	; 100
     91c:	90 e0       	ldi	r25, 0x00	; 0
     91e:	0e 94 d6 10 	call	0x21ac <delay_us>
     922:	11 50       	subi	r17, 0x01	; 1
     924:	69 f7       	brne	.-38     	; 0x900 <SCCBreadByte+0x12>
	}
    SIO_D_OUT;/*设置SDA为输出*/	
     926:	ba 9a       	sbi	0x17, 2	; 23
	return(read);
}
     928:	8c 2f       	mov	r24, r28
     92a:	99 27       	eor	r25, r25
     92c:	cf 91       	pop	r28
     92e:	1f 91       	pop	r17
     930:	08 95       	ret

00000932 <wrOV7670Reg>:
////////////////////////////
//功能：写OV7660寄存器
//返回：1-成功	0-失败
uchar wrOV7670Reg(uchar regID, uchar regDat)
{
     932:	1f 93       	push	r17
     934:	cf 93       	push	r28
     936:	c8 2f       	mov	r28, r24
     938:	16 2f       	mov	r17, r22
	startSCCB();
     93a:	0e 94 f6 03 	call	0x7ec <startSCCB>
	if(0==SCCBwriteByte(0x42))
     93e:	82 e4       	ldi	r24, 0x42	; 66
     940:	0e 94 30 04 	call	0x860 <SCCBwriteByte>
     944:	88 23       	and	r24, r24
     946:	91 f0       	breq	.+36     	; 0x96c <wrOV7670Reg+0x3a>
	{
		stopSCCB();
		return(0);
	}
	delay_us(100);
     948:	84 e6       	ldi	r24, 0x64	; 100
     94a:	90 e0       	ldi	r25, 0x00	; 0
     94c:	0e 94 d6 10 	call	0x21ac <delay_us>
  	if(0==SCCBwriteByte(regID))
     950:	8c 2f       	mov	r24, r28
     952:	0e 94 30 04 	call	0x860 <SCCBwriteByte>
     956:	88 23       	and	r24, r24
     958:	49 f0       	breq	.+18     	; 0x96c <wrOV7670Reg+0x3a>
	{
		stopSCCB();
		return(0);
	}
	delay_us(100);
     95a:	84 e6       	ldi	r24, 0x64	; 100
     95c:	90 e0       	ldi	r25, 0x00	; 0
     95e:	0e 94 d6 10 	call	0x21ac <delay_us>
  	if(0==SCCBwriteByte(regDat))
     962:	81 2f       	mov	r24, r17
     964:	0e 94 30 04 	call	0x860 <SCCBwriteByte>
     968:	88 23       	and	r24, r24
     96a:	29 f4       	brne	.+10     	; 0x976 <wrOV7670Reg+0x44>
	{
		stopSCCB();
     96c:	0e 94 0b 04 	call	0x816 <stopSCCB>
		return(0);
     970:	80 e0       	ldi	r24, 0x00	; 0
     972:	90 e0       	ldi	r25, 0x00	; 0
     974:	04 c0       	rjmp	.+8      	; 0x97e <wrOV7670Reg+0x4c>
	}
  	stopSCCB();
     976:	0e 94 0b 04 	call	0x816 <stopSCCB>
	
  	return(1);
     97a:	81 e0       	ldi	r24, 0x01	; 1
     97c:	90 e0       	ldi	r25, 0x00	; 0
     97e:	cf 91       	pop	r28
     980:	1f 91       	pop	r17
     982:	08 95       	ret

00000984 <rdOV7670Reg>:
}
////////////////////////////
//功能：读OV7660寄存器
//返回：1-成功	0-失败
uchar rdOV7670Reg(uchar regID, uchar *regDat)
{
     984:	0f 93       	push	r16
     986:	1f 93       	push	r17
     988:	cf 93       	push	r28
     98a:	c8 2f       	mov	r28, r24
     98c:	8b 01       	movw	r16, r22
	//通过写操作设置寄存器地址
	startSCCB();
     98e:	0e 94 f6 03 	call	0x7ec <startSCCB>
	if(0==SCCBwriteByte(0x42))
     992:	82 e4       	ldi	r24, 0x42	; 66
     994:	0e 94 30 04 	call	0x860 <SCCBwriteByte>
     998:	88 23       	and	r24, r24
     99a:	b1 f0       	breq	.+44     	; 0x9c8 <rdOV7670Reg+0x44>
	{
		stopSCCB();
		return(0);
	}
	delay_us(100);
     99c:	84 e6       	ldi	r24, 0x64	; 100
     99e:	90 e0       	ldi	r25, 0x00	; 0
     9a0:	0e 94 d6 10 	call	0x21ac <delay_us>
  	if(0==SCCBwriteByte(regID))
     9a4:	8c 2f       	mov	r24, r28
     9a6:	0e 94 30 04 	call	0x860 <SCCBwriteByte>
     9aa:	88 23       	and	r24, r24
     9ac:	69 f0       	breq	.+26     	; 0x9c8 <rdOV7670Reg+0x44>
	{
		stopSCCB();
		return(0);
	}
	stopSCCB();
     9ae:	0e 94 0b 04 	call	0x816 <stopSCCB>
	
	delay_us(100);
     9b2:	84 e6       	ldi	r24, 0x64	; 100
     9b4:	90 e0       	ldi	r25, 0x00	; 0
     9b6:	0e 94 d6 10 	call	0x21ac <delay_us>
	
	//设置寄存器地址后，才是读
	startSCCB();
     9ba:	0e 94 f6 03 	call	0x7ec <startSCCB>
	if(0==SCCBwriteByte(0x43))
     9be:	83 e4       	ldi	r24, 0x43	; 67
     9c0:	0e 94 30 04 	call	0x860 <SCCBwriteByte>
     9c4:	88 23       	and	r24, r24
     9c6:	29 f4       	brne	.+10     	; 0x9d2 <rdOV7670Reg+0x4e>
	{
		stopSCCB();
     9c8:	0e 94 0b 04 	call	0x816 <stopSCCB>
		return(0);
     9cc:	80 e0       	ldi	r24, 0x00	; 0
     9ce:	90 e0       	ldi	r25, 0x00	; 0
     9d0:	0e c0       	rjmp	.+28     	; 0x9ee <rdOV7670Reg+0x6a>
	}
	delay_us(100);
     9d2:	84 e6       	ldi	r24, 0x64	; 100
     9d4:	90 e0       	ldi	r25, 0x00	; 0
     9d6:	0e 94 d6 10 	call	0x21ac <delay_us>
  	*regDat=SCCBreadByte();
     9da:	0e 94 77 04 	call	0x8ee <SCCBreadByte>
     9de:	f8 01       	movw	r30, r16
     9e0:	80 83       	st	Z, r24
  	noAck();
     9e2:	0e 94 1b 04 	call	0x836 <noAck>
  	stopSCCB();
     9e6:	0e 94 0b 04 	call	0x816 <stopSCCB>
  	return(1);
     9ea:	81 e0       	ldi	r24, 0x01	; 1
     9ec:	90 e0       	ldi	r25, 0x00	; 0
     9ee:	cf 91       	pop	r28
     9f0:	1f 91       	pop	r17
     9f2:	0f 91       	pop	r16
     9f4:	08 95       	ret

000009f6 <OV7670_config_window>:
     9f6:	af 92       	push	r10
     9f8:	bf 92       	push	r11
     9fa:	cf 92       	push	r12
     9fc:	df 92       	push	r13
     9fe:	ef 92       	push	r14
     a00:	ff 92       	push	r15
     a02:	0f 93       	push	r16
     a04:	1f 93       	push	r17
     a06:	cf 93       	push	r28
     a08:	df 93       	push	r29
     a0a:	cd b7       	in	r28, 0x3d	; 61
     a0c:	de b7       	in	r29, 0x3e	; 62
     a0e:	22 97       	sbiw	r28, 0x02	; 2
     a10:	0f b6       	in	r0, 0x3f	; 63
     a12:	f8 94       	cli
     a14:	de bf       	out	0x3e, r29	; 62
     a16:	0f be       	out	0x3f, r0	; 63
     a18:	cd bf       	out	0x3d, r28	; 61
     a1a:	7c 01       	movw	r14, r24
     a1c:	5b 01       	movw	r10, r22
     a1e:	8a 01       	movw	r16, r20
     a20:	0e 0d       	add	r16, r14
     a22:	1f 1d       	adc	r17, r15
     a24:	6b 01       	movw	r12, r22
     a26:	c2 0e       	add	r12, r18
     a28:	d3 1e       	adc	r13, r19
     a2a:	c2 0e       	add	r12, r18
     a2c:	d3 1e       	adc	r13, r19
     a2e:	be 01       	movw	r22, r28
     a30:	6f 5f       	subi	r22, 0xFF	; 255
     a32:	7f 4f       	sbci	r23, 0xFF	; 255
     a34:	83 e0       	ldi	r24, 0x03	; 3
     a36:	0e 94 c2 04 	call	0x984 <rdOV7670Reg>
     a3a:	89 81       	ldd	r24, Y+1	; 0x01
     a3c:	80 7f       	andi	r24, 0xF0	; 240
     a3e:	89 83       	std	Y+1, r24	; 0x01
     a40:	be 01       	movw	r22, r28
     a42:	6e 5f       	subi	r22, 0xFE	; 254
     a44:	7f 4f       	sbci	r23, 0xFF	; 255
     a46:	82 e3       	ldi	r24, 0x32	; 50
     a48:	0e 94 c2 04 	call	0x984 <rdOV7670Reg>
     a4c:	9a 81       	ldd	r25, Y+2	; 0x02
     a4e:	90 7c       	andi	r25, 0xC0	; 192
     a50:	9a 83       	std	Y+2, r25	; 0x02
     a52:	80 2f       	mov	r24, r16
     a54:	87 70       	andi	r24, 0x07	; 7
     a56:	88 0f       	add	r24, r24
     a58:	88 0f       	add	r24, r24
     a5a:	88 0f       	add	r24, r24
     a5c:	98 2b       	or	r25, r24
     a5e:	8e 2d       	mov	r24, r14
     a60:	87 70       	andi	r24, 0x07	; 7
     a62:	98 2b       	or	r25, r24
     a64:	69 2f       	mov	r22, r25
     a66:	82 e3       	ldi	r24, 0x32	; 50
     a68:	0e 94 99 04 	call	0x932 <wrOV7670Reg>
     a6c:	88 ef       	ldi	r24, 0xF8	; 248
     a6e:	97 e0       	ldi	r25, 0x07	; 7
     a70:	e8 22       	and	r14, r24
     a72:	f9 22       	and	r15, r25
     a74:	33 e0       	ldi	r19, 0x03	; 3
     a76:	f6 94       	lsr	r15
     a78:	e7 94       	ror	r14
     a7a:	3a 95       	dec	r19
     a7c:	e1 f7       	brne	.-8      	; 0xa76 <OV7670_config_window+0x80>
     a7e:	6e 2d       	mov	r22, r14
     a80:	87 e1       	ldi	r24, 0x17	; 23
     a82:	0e 94 99 04 	call	0x932 <wrOV7670Reg>
     a86:	08 7f       	andi	r16, 0xF8	; 248
     a88:	17 70       	andi	r17, 0x07	; 7
     a8a:	23 e0       	ldi	r18, 0x03	; 3
     a8c:	16 95       	lsr	r17
     a8e:	07 95       	ror	r16
     a90:	2a 95       	dec	r18
     a92:	e1 f7       	brne	.-8      	; 0xa8c <OV7670_config_window+0x96>
     a94:	60 2f       	mov	r22, r16
     a96:	88 e1       	ldi	r24, 0x18	; 24
     a98:	0e 94 99 04 	call	0x932 <wrOV7670Reg>
     a9c:	9c 2d       	mov	r25, r12
     a9e:	93 70       	andi	r25, 0x03	; 3
     aa0:	99 0f       	add	r25, r25
     aa2:	99 0f       	add	r25, r25
     aa4:	89 81       	ldd	r24, Y+1	; 0x01
     aa6:	89 2b       	or	r24, r25
     aa8:	9a 2d       	mov	r25, r10
     aaa:	93 70       	andi	r25, 0x03	; 3
     aac:	89 2b       	or	r24, r25
     aae:	68 2f       	mov	r22, r24
     ab0:	83 e0       	ldi	r24, 0x03	; 3
     ab2:	0e 94 99 04 	call	0x932 <wrOV7670Reg>
     ab6:	b6 94       	lsr	r11
     ab8:	a7 94       	ror	r10
     aba:	b6 94       	lsr	r11
     abc:	a7 94       	ror	r10
     abe:	6a 2d       	mov	r22, r10
     ac0:	89 e1       	ldi	r24, 0x19	; 25
     ac2:	0e 94 99 04 	call	0x932 <wrOV7670Reg>
     ac6:	d6 94       	lsr	r13
     ac8:	c7 94       	ror	r12
     aca:	d6 94       	lsr	r13
     acc:	c7 94       	ror	r12
     ace:	6c 2d       	mov	r22, r12
     ad0:	8a e1       	ldi	r24, 0x1A	; 26
     ad2:	0e 94 99 04 	call	0x932 <wrOV7670Reg>
     ad6:	22 96       	adiw	r28, 0x02	; 2
     ad8:	0f b6       	in	r0, 0x3f	; 63
     ada:	f8 94       	cli
     adc:	de bf       	out	0x3e, r29	; 62
     ade:	0f be       	out	0x3f, r0	; 63
     ae0:	cd bf       	out	0x3d, r28	; 61
     ae2:	df 91       	pop	r29
     ae4:	cf 91       	pop	r28
     ae6:	1f 91       	pop	r17
     ae8:	0f 91       	pop	r16
     aea:	ff 90       	pop	r15
     aec:	ef 90       	pop	r14
     aee:	df 90       	pop	r13
     af0:	cf 90       	pop	r12
     af2:	bf 90       	pop	r11
     af4:	af 90       	pop	r10
     af6:	08 95       	ret

00000af8 <OV7670_init>:
}




/* OV7670_init() */
//返回1成功，返回0失败
uchar OV7670_init(void)
{
     af8:	0f 93       	push	r16
     afa:	1f 93       	push	r17
     afc:	cf 93       	push	r28
     afe:	df 93       	push	r29
	uchar temp;
	
	uint i=0;
     b00:	c0 e0       	ldi	r28, 0x00	; 0
     b02:	d0 e0       	ldi	r29, 0x00	; 0

	
	InitSCCB();//io init..
     b04:	0e 94 ef 03 	call	0x7de <InitSCCB>

	temp=0x80;
	if(0==wrOV7670Reg(0x12, temp)) //Reset SCCB
     b08:	60 e8       	ldi	r22, 0x80	; 128
     b0a:	82 e1       	ldi	r24, 0x12	; 18
     b0c:	0e 94 99 04 	call	0x932 <wrOV7670Reg>
     b10:	88 23       	and	r24, r24
     b12:	29 f4       	brne	.+10     	; 0xb1e <OV7670_init+0x26>
	{
		return 0 ;
     b14:	ce 01       	movw	r24, r28
     b16:	20 c0       	rjmp	.+64     	; 0xb58 <OV7670_init+0x60>
	}
	delay_ms(10);

	for(i=0;i<CHANGE_REG_NUM;i++)
	{
		if( 0==wrOV7670Reg(pgm_read_byte( &change_reg[i][0]),pgm_read_byte( &change_reg[i][1]) ))
		{
			return 0;
     b18:	80 e0       	ldi	r24, 0x00	; 0
     b1a:	90 e0       	ldi	r25, 0x00	; 0
     b1c:	1d c0       	rjmp	.+58     	; 0xb58 <OV7670_init+0x60>
     b1e:	8a e0       	ldi	r24, 0x0A	; 10
     b20:	90 e0       	ldi	r25, 0x00	; 0
     b22:	0e 94 dc 10 	call	0x21b8 <delay_ms>
     b26:	cc 5a       	subi	r28, 0xAC	; 172
     b28:	df 4f       	sbci	r29, 0xFF	; 255
     b2a:	8e 01       	movw	r16, r28
     b2c:	0f 5f       	subi	r16, 0xFF	; 255
     b2e:	1f 4f       	sbci	r17, 0xFF	; 255
     b30:	f8 01       	movw	r30, r16
     b32:	84 91       	lpm	r24, Z
     b34:	fe 01       	movw	r30, r28
     b36:	94 91       	lpm	r25, Z
     b38:	68 2f       	mov	r22, r24
     b3a:	89 2f       	mov	r24, r25
     b3c:	0e 94 99 04 	call	0x932 <wrOV7670Reg>
     b40:	88 23       	and	r24, r24
     b42:	51 f3       	breq	.-44     	; 0xb18 <OV7670_init+0x20>
     b44:	0e 5f       	subi	r16, 0xFE	; 254
     b46:	1f 4f       	sbci	r17, 0xFF	; 255
     b48:	22 96       	adiw	r28, 0x02	; 2
     b4a:	f1 e0       	ldi	r31, 0x01	; 1
     b4c:	c2 3b       	cpi	r28, 0xB2	; 178
     b4e:	df 07       	cpc	r29, r31
     b50:	79 f3       	breq	.-34     	; 0xb30 <OV7670_init+0x38>
     b52:	70 f3       	brcs	.-36     	; 0xb30 <OV7670_init+0x38>
		}
	}
  //  OV7670_config_window(272,12,320,240); 
	return 0x01; //ok
     b54:	81 e0       	ldi	r24, 0x01	; 1
     b56:	90 e0       	ldi	r25, 0x00	; 0
     b58:	df 91       	pop	r29
     b5a:	cf 91       	pop	r28
     b5c:	1f 91       	pop	r17
     b5e:	0f 91       	pop	r16
     b60:	08 95       	ret

00000b62 <Init_INT0>:
volatile unsigned char val1=0,val2=0;

void Init_INT0(void)
{
	SREG |= 0x80 ;//使能全局中断
     b62:	8f b7       	in	r24, 0x3f	; 63
     b64:	80 68       	ori	r24, 0x80	; 128
     b66:	8f bf       	out	0x3f, r24	; 63
	MCUCR |= 0x02 ;//下降沿中断
     b68:	85 b7       	in	r24, 0x35	; 53
     b6a:	82 60       	ori	r24, 0x02	; 2
     b6c:	85 bf       	out	0x35, r24	; 53
	GICR=(1<<INT0) ;//
     b6e:	80 e4       	ldi	r24, 0x40	; 64
     b70:	8b bf       	out	0x3b, r24	; 59
     b72:	08 95       	ret

00000b74 <__vector_1>:
	
}


SIGNAL( SIG_INTERRUPT0 )
{
     b74:	1f 92       	push	r1
     b76:	0f 92       	push	r0
     b78:	0f b6       	in	r0, 0x3f	; 63
     b7a:	0f 92       	push	r0
     b7c:	11 24       	eor	r1, r1
     b7e:	2f 93       	push	r18
     b80:	3f 93       	push	r19
     b82:	4f 93       	push	r20
     b84:	5f 93       	push	r21
     b86:	6f 93       	push	r22
     b88:	7f 93       	push	r23
     b8a:	8f 93       	push	r24
     b8c:	9f 93       	push	r25
     b8e:	af 93       	push	r26
     b90:	bf 93       	push	r27
     b92:	cf 93       	push	r28
     b94:	ef 93       	push	r30
     b96:	ff 93       	push	r31
	cli();
     b98:	f8 94       	cli
	if(PIND&0X20){val2++;if(val2>100)val2=100;}
     b9a:	85 9b       	sbis	0x10, 5	; 16
     b9c:	0d c0       	rjmp	.+26     	; 0xbb8 <__vector_1+0x44>
     b9e:	80 91 20 01 	lds	r24, 0x0120
     ba2:	8f 5f       	subi	r24, 0xFF	; 255
     ba4:	80 93 20 01 	sts	0x0120, r24
     ba8:	80 91 20 01 	lds	r24, 0x0120
     bac:	85 36       	cpi	r24, 0x65	; 101
     bae:	a0 f0       	brcs	.+40     	; 0xbd8 <__vector_1+0x64>
     bb0:	84 e6       	ldi	r24, 0x64	; 100
     bb2:	80 93 20 01 	sts	0x0120, r24
     bb6:	10 c0       	rjmp	.+32     	; 0xbd8 <__vector_1+0x64>
	else if(val2>5)
     bb8:	80 91 20 01 	lds	r24, 0x0120
     bbc:	86 30       	cpi	r24, 0x06	; 6
     bbe:	60 f0       	brcs	.+24     	; 0xbd8 <__vector_1+0x64>
	{
	 if(val1)val1=0;
     bc0:	80 91 21 01 	lds	r24, 0x0121
     bc4:	88 23       	and	r24, r24
     bc6:	19 f0       	breq	.+6      	; 0xbce <__vector_1+0x5a>
     bc8:	10 92 21 01 	sts	0x0121, r1
     bcc:	03 c0       	rjmp	.+6      	; 0xbd4 <__vector_1+0x60>
	 else val1=1;
     bce:	81 e0       	ldi	r24, 0x01	; 1
     bd0:	80 93 21 01 	sts	0x0121, r24
	 val2=0;
     bd4:	10 92 20 01 	sts	0x0120, r1
    }
	
	
    if(val1==0)
     bd8:	c0 91 21 01 	lds	r28, 0x0121
     bdc:	cc 23       	and	r28, r28
     bde:	c9 f5       	brne	.+114    	; 0xc52 <__vector_1+0xde>
	{
	// val1=0;
	 DISEN_EXCLK;//禁止外部CLK，使单片机WR与TFT WR相连	
     be0:	c0 98       	cbi	0x18, 0	; 24
	 DISEN_245;//禁止外部数据线，使单片机数据与TFT数据线相连	
     be2:	96 9a       	sbi	0x12, 6	; 18
     DATA_OUPUT();//数据线输出，准备连数据线到TFT
     be4:	8f ef       	ldi	r24, 0xFF	; 255
     be6:	84 bb       	out	0x14, r24	; 20
	 LCD_WR_REG(0x0020,239);//
     be8:	6f ee       	ldi	r22, 0xEF	; 239
     bea:	70 e0       	ldi	r23, 0x00	; 0
     bec:	80 e2       	ldi	r24, 0x20	; 32
     bee:	90 e0       	ldi	r25, 0x00	; 0
     bf0:	0e 94 30 11 	call	0x2260 <LCD_WR_REG>
	 LCD_WR_REG(0x0021,0);//
     bf4:	60 e0       	ldi	r22, 0x00	; 0
     bf6:	70 e0       	ldi	r23, 0x00	; 0
     bf8:	81 e2       	ldi	r24, 0x21	; 33
     bfa:	90 e0       	ldi	r25, 0x00	; 0
     bfc:	0e 94 30 11 	call	0x2260 <LCD_WR_REG>
	 LCD_WR_REG(0x0050,0x00);//水平 GRAM起始位置
     c00:	60 e0       	ldi	r22, 0x00	; 0
     c02:	70 e0       	ldi	r23, 0x00	; 0
     c04:	80 e5       	ldi	r24, 0x50	; 80
     c06:	90 e0       	ldi	r25, 0x00	; 0
     c08:	0e 94 30 11 	call	0x2260 <LCD_WR_REG>
	 LCD_WR_REG(0x0051,239);//水平GRAM终止位置
     c0c:	6f ee       	ldi	r22, 0xEF	; 239
     c0e:	70 e0       	ldi	r23, 0x00	; 0
     c10:	81 e5       	ldi	r24, 0x51	; 81
     c12:	90 e0       	ldi	r25, 0x00	; 0
     c14:	0e 94 30 11 	call	0x2260 <LCD_WR_REG>
	 LCD_WR_REG(0x0052,0x00);//垂直GRAM起始位置
     c18:	60 e0       	ldi	r22, 0x00	; 0
     c1a:	70 e0       	ldi	r23, 0x00	; 0
     c1c:	82 e5       	ldi	r24, 0x52	; 82
     c1e:	90 e0       	ldi	r25, 0x00	; 0
     c20:	0e 94 30 11 	call	0x2260 <LCD_WR_REG>
	 LCD_WR_REG(0x0053,319);//垂直GRAM终止位置 
     c24:	6f e3       	ldi	r22, 0x3F	; 63
     c26:	71 e0       	ldi	r23, 0x01	; 1
     c28:	83 e5       	ldi	r24, 0x53	; 83
     c2a:	90 e0       	ldi	r25, 0x00	; 0
     c2c:	0e 94 30 11 	call	0x2260 <LCD_WR_REG>
	 LCD_WR_REG(0x0003,0x1028); 
     c30:	68 e2       	ldi	r22, 0x28	; 40
     c32:	70 e1       	ldi	r23, 0x10	; 16
     c34:	83 e0       	ldi	r24, 0x03	; 3
     c36:	90 e0       	ldi	r25, 0x00	; 0
     c38:	0e 94 30 11 	call	0x2260 <LCD_WR_REG>

	 LCD_WR_REG16(0x0022);
     c3c:	82 e2       	ldi	r24, 0x22	; 34
     c3e:	90 e0       	ldi	r25, 0x00	; 0
     c40:	0e 94 0e 11 	call	0x221c <LCD_WR_REG16>
	 
     
	 DATA_INPUT();//数据线输入，准备连接外部数据线到TFT	
     c44:	c4 bb       	out	0x14, r28	; 20
	 LCD_RS_H();//数据使能
     c46:	de 9a       	sbi	0x1b, 6	; 27
	 LCD_WR_L();//使能外部时钟
     c48:	c3 9a       	sbi	0x18, 3	; 24
	 EN_EXCLK;//使能外部CLK
     c4a:	c0 9a       	sbi	0x18, 0	; 24
	 EN_245;//使能外部数据线，与TFT数据线相连	
     c4c:	96 98       	cbi	0x12, 6	; 18
	 LCD_CS_L();//数据使能
     c4e:	dd 98       	cbi	0x1b, 5	; 27
     c50:	02 c0       	rjmp	.+4      	; 0xc56 <__vector_1+0xe2>
	 }
	 else 
	 {

	 DISEN_EXCLK;//禁止外部CLK，使单片机WR与TFT WR相连	
     c52:	c0 98       	cbi	0x18, 0	; 24
	 DISEN_245;//禁止外部数据线，使单片机数据与TFT数据线相连	
     c54:	96 9a       	sbi	0x12, 6	; 18

	 
	 }
	
	 sei();
     c56:	78 94       	sei
     c58:	ff 91       	pop	r31
     c5a:	ef 91       	pop	r30
     c5c:	cf 91       	pop	r28
     c5e:	bf 91       	pop	r27
     c60:	af 91       	pop	r26
     c62:	9f 91       	pop	r25
     c64:	8f 91       	pop	r24
     c66:	7f 91       	pop	r23
     c68:	6f 91       	pop	r22
     c6a:	5f 91       	pop	r21
     c6c:	4f 91       	pop	r20
     c6e:	3f 91       	pop	r19
     c70:	2f 91       	pop	r18
     c72:	0f 90       	pop	r0
     c74:	0f be       	out	0x3f, r0	; 63
     c76:	0f 90       	pop	r0
     c78:	1f 90       	pop	r1
     c7a:	18 95       	reti

00000c7c <disp_image>:

extern uint8  FAT32_Enable;

void disp_image(void)
  {
     c7c:	2f 92       	push	r2
     c7e:	3f 92       	push	r3
     c80:	4f 92       	push	r4
     c82:	5f 92       	push	r5
     c84:	6f 92       	push	r6
     c86:	7f 92       	push	r7
     c88:	8f 92       	push	r8
     c8a:	9f 92       	push	r9
     c8c:	af 92       	push	r10
     c8e:	bf 92       	push	r11
     c90:	cf 92       	push	r12
     c92:	df 92       	push	r13
     c94:	ef 92       	push	r14
     c96:	ff 92       	push	r15
     c98:	0f 93       	push	r16
     c9a:	1f 93       	push	r17
     c9c:	cf 93       	push	r28
     c9e:	df 93       	push	r29
     ca0:	cd b7       	in	r28, 0x3d	; 61
     ca2:	de b7       	in	r29, 0x3e	; 62
     ca4:	e7 97       	sbiw	r28, 0x37	; 55
     ca6:	0f b6       	in	r0, 0x3f	; 63
     ca8:	f8 94       	cli
     caa:	de bf       	out	0x3e, r29	; 62
     cac:	0f be       	out	0x3f, r0	; 63
     cae:	cd bf       	out	0x3d, r28	; 61
    WORD count= 1 ,i =0   ;
     cb0:	71 e0       	ldi	r23, 0x01	; 1
     cb2:	67 2e       	mov	r6, r23
     cb4:	71 2c       	mov	r7, r1
     cb6:	22 24       	eor	r2, r2
     cb8:	33 24       	eor	r3, r3
	uint8 *buffer ;
	uint8 type ,x , rgb,first ,color_byte,byte1,byte2,byte3 ;
	uint16 y ,color,tmp_color ;
    uint32 p;				//簇指示值			//cluster
	type = 1 ;
     cba:	81 e0       	ldi	r24, 0x01	; 1
     cbc:	88 ab       	std	Y+48, r24	; 0x30
	struct FileInfoStruct FileInfo;//文件信息

    struct direntry BMPInfo;	//要播放的mp3文件信息		//the mp3 file item whichi will be played
	
	 LCD_WR_REG(0x0050,0);//水平 GRAM起始位置
     cbe:	b1 01       	movw	r22, r2
     cc0:	80 e5       	ldi	r24, 0x50	; 80
     cc2:	90 e0       	ldi	r25, 0x00	; 0
     cc4:	0e 94 30 11 	call	0x2260 <LCD_WR_REG>
     LCD_WR_REG(0x0051,239);//水平GRAM终止位置
     cc8:	6f ee       	ldi	r22, 0xEF	; 239
     cca:	70 e0       	ldi	r23, 0x00	; 0
     ccc:	81 e5       	ldi	r24, 0x51	; 81
     cce:	90 e0       	ldi	r25, 0x00	; 0
     cd0:	0e 94 30 11 	call	0x2260 <LCD_WR_REG>
     LCD_WR_REG(0x0052,0);//垂直GRAM起始位置
     cd4:	b1 01       	movw	r22, r2
     cd6:	82 e5       	ldi	r24, 0x52	; 82
     cd8:	90 e0       	ldi	r25, 0x00	; 0
     cda:	0e 94 30 11 	call	0x2260 <LCD_WR_REG>
     LCD_WR_REG(0x0053,319);//垂直GRAM终止位置 
     cde:	6f e3       	ldi	r22, 0x3F	; 63
     ce0:	71 e0       	ldi	r23, 0x01	; 1
     ce2:	83 e5       	ldi	r24, 0x53	; 83
     ce4:	90 e0       	ldi	r25, 0x00	; 0
     ce6:	0e 94 30 11 	call	0x2260 <LCD_WR_REG>
	
	if( image_all == 0 )    //读取总图片数
     cea:	80 91 22 01 	lds	r24, 0x0122
     cee:	90 91 23 01 	lds	r25, 0x0123
     cf2:	9e 01       	movw	r18, r28
     cf4:	20 5f       	subi	r18, 0xF0	; 240
     cf6:	3f 4f       	sbci	r19, 0xFF	; 255
     cf8:	89 2b       	or	r24, r25
     cfa:	d1 f4       	brne	.+52     	; 0xd30 <disp_image+0xb4>
	  {
         image_count =  0 ;
     cfc:	30 92 25 01 	sts	0x0125, r3
     d00:	20 92 24 01 	sts	0x0124, r2
	     byte1 = Search(&BMPInfo,&image_count,&type) ;
     d04:	ae 01       	movw	r20, r28
     d06:	40 5d       	subi	r20, 0xD0	; 208
     d08:	5f 4f       	sbci	r21, 0xFF	; 255
     d0a:	64 e2       	ldi	r22, 0x24	; 36
     d0c:	71 e0       	ldi	r23, 0x01	; 1
     d0e:	c9 01       	movw	r24, r18
     d10:	0e 94 2d 0f 	call	0x1e5a <Search>
     d14:	8b ab       	std	Y+51, r24	; 0x33
		 image_all = image_count ;		 
     d16:	80 91 24 01 	lds	r24, 0x0124
     d1a:	90 91 25 01 	lds	r25, 0x0125
     d1e:	90 93 23 01 	sts	0x0123, r25
     d22:	80 93 22 01 	sts	0x0122, r24
		 image_count = 1 ;
     d26:	70 92 25 01 	sts	0x0125, r7
     d2a:	60 92 24 01 	sts	0x0124, r6
     d2e:	09 c0       	rjmp	.+18     	; 0xd42 <disp_image+0xc6>
		 		 
		 /*
	     image_count = 0 ;
         Search(&BMPInfo,&image_count,&type) ;
		 image_all = image_count ;
		 GUI_sprintf_chartohex(10,300,0x00,0xffff,0x0000) ;
		 GUI_sprintf_chartohex(30,300,image_count,0xffff,0x0000) ;
		 GUI_sprintf_chartohex(60,300,image_all,0xffff,0x0000) ;
		 */
	  }
	else  
      {		
          byte1 = Search(&BMPInfo,&image_count,&type) ;
     d30:	ae 01       	movw	r20, r28
     d32:	40 5d       	subi	r20, 0xD0	; 208
     d34:	5f 4f       	sbci	r21, 0xFF	; 255
     d36:	64 e2       	ldi	r22, 0x24	; 36
     d38:	71 e0       	ldi	r23, 0x01	; 1
     d3a:	c9 01       	movw	r24, r18
     d3c:	0e 94 2d 0f 	call	0x1e5a <Search>
     d40:	8b ab       	std	Y+51, r24	; 0x33
      }	
	 
	 
	 
	p = BMPInfo.deStartCluster+(((uint32)BMPInfo.deHighClust)<<16);//读文件首簇	//the first cluster of the file
     d42:	8a a5       	ldd	r24, Y+42	; 0x2a
     d44:	9b a5       	ldd	r25, Y+43	; 0x2b
     d46:	6c 01       	movw	r12, r24
     d48:	ee 24       	eor	r14, r14
     d4a:	ff 24       	eor	r15, r15
     d4c:	8c a1       	ldd	r24, Y+36	; 0x24
     d4e:	9d a1       	ldd	r25, Y+37	; 0x25
     d50:	aa 27       	eor	r26, r26
     d52:	bb 27       	eor	r27, r27
     d54:	dc 01       	movw	r26, r24
     d56:	99 27       	eor	r25, r25
     d58:	88 27       	eor	r24, r24
     d5a:	c8 0e       	add	r12, r24
     d5c:	d9 1e       	adc	r13, r25
     d5e:	ea 1e       	adc	r14, r26
     d60:	fb 1e       	adc	r15, r27
	
	x = 240 ;
     d62:	20 ef       	ldi	r18, 0xF0	; 240
     d64:	29 ab       	std	Y+49, r18	; 0x31
	y = 0 ;
     d66:	1f aa       	std	Y+55, r1	; 0x37
     d68:	1e aa       	std	Y+54, r1	; 0x36
	rgb = 0 ;
     d6a:	55 24       	eor	r5, r5
	count = 0 ;
	first = 0 ;
     d6c:	5a aa       	std	Y+50, r5	; 0x32
	buffer=malloc(512);	
     d6e:	80 e0       	ldi	r24, 0x00	; 0
     d70:	92 e0       	ldi	r25, 0x02	; 2
     d72:	0e 94 75 14 	call	0x28ea <malloc>
     d76:	4c 01       	movw	r8, r24
	while(1)
	 {
		i = 0 ;
     d78:	22 24       	eor	r2, r2
     d7a:	33 24       	eor	r3, r3
	
	    for( ; i < SectorsPerClust ; i++ )      //簇
     d7c:	80 91 2e 01 	lds	r24, 0x012E
     d80:	90 91 2f 01 	lds	r25, 0x012F
     d84:	28 16       	cp	r2, r24
     d86:	39 06       	cpc	r3, r25
     d88:	08 f0       	brcs	.+2      	; 0xd8c <disp_image+0x110>
     d8a:	d6 c0       	rjmp	.+428    	; 0xf38 <disp_image+0x2bc>
	     {
	 
	        FAT_LoadPartCluster(p,i,buffer);//读一个扇区	//read a sector
     d8c:	94 01       	movw	r18, r8
     d8e:	a1 01       	movw	r20, r2
     d90:	c7 01       	movw	r24, r14
     d92:	b6 01       	movw	r22, r12
     d94:	0e 94 a8 0b 	call	0x1750 <FAT_LoadPartCluster>
	   
	        if(i==0 && first==0) { count= buffer[0x0a] ; color_byte = buffer[0x1c] / 8  ;  first = 1 ; } 
     d98:	21 14       	cp	r2, r1
     d9a:	31 04       	cpc	r3, r1
     d9c:	71 f4       	brne	.+28     	; 0xdba <disp_image+0x13e>
     d9e:	8a a9       	ldd	r24, Y+50	; 0x32
     da0:	88 23       	and	r24, r24
     da2:	59 f4       	brne	.+22     	; 0xdba <disp_image+0x13e>
     da4:	f4 01       	movw	r30, r8
     da6:	82 85       	ldd	r24, Z+10	; 0x0a
     da8:	68 2e       	mov	r6, r24
     daa:	77 24       	eor	r7, r7
     dac:	44 8c       	ldd	r4, Z+28	; 0x1c
     dae:	46 94       	lsr	r4
     db0:	46 94       	lsr	r4
     db2:	46 94       	lsr	r4
     db4:	f1 e0       	ldi	r31, 0x01	; 1
     db6:	fa ab       	std	Y+50, r31	; 0x32
     db8:	02 c0       	rjmp	.+4      	; 0xdbe <disp_image+0x142>
	        else { count=0 ; }
     dba:	66 24       	eor	r6, r6
     dbc:	77 24       	eor	r7, r7
	   
	        while(count<512)  //读取一簇512扇区 (SectorsPerClust 每簇扇区数)
	          {
		   
		        if(color_byte == 3)   //24位颜色图
		          {
                      switch ( rgb ) 
                        {
			               case 0 : tmp_color = buffer[count]>>3 ;
			                        color |= tmp_color;
					                break ;
					  
			               case 1 : tmp_color = buffer[count]>>2 ;
			                        tmp_color <<= 5 ;
			                        color |= tmp_color ;
					                break ;
					   
       			           case 2 : tmp_color = buffer[count]>>3 ;
			                        tmp_color <<= 11 ;
			                        color |= tmp_color ;
					                 break ;			
			            }
			
                      rgb ++ ;
			      }
		        else
		          {
			          if(color_byte==2)  //16位颜色图
				        {
				          switch ( rgb )
					        {
					          case 0 : byte1 = buffer[count] ;
								       break ; 
								   
						      case 1 :    
								       color = buffer[count] ;
								       color<<=8 ;
								       color |= byte1 ;
								       break ;
					     
					        }
					      rgb ++ ;
				    
				        }
				      else 
				        {
				          if(color_byte==4) //32位颜色图
				            {
				              switch ( rgb )
					            {
					              case 0 :  byte1 = buffer[count] ;
								            break ; 
								   
						          case 1 :  byte2 = buffer[count] ;
                                            break ;
									   
							      case 2 :  byte3 = buffer[count] ;
							                break ;
									   
							      case 3 :  tmp_color = byte1 >> 3 ;
			                                color |= tmp_color;
									        tmp_color = byte2 >>2 ;
			                                tmp_color <<= 5 ;
			                                color |= tmp_color ;
									        tmp_color = byte3 >>3 ;
			                                tmp_color <<= 11 ;
			                                color |= tmp_color ;
									        break ;
					     
					            }
					           rgb ++ ;
				    
				            }
				     
				        }   
			 
			       }
           
		   count ++ ;
		   
		   if(rgb == color_byte)        //读取1像素数数据后显示
		     {
			   // GUI_Point(x, y,color) ;
				
				    LCD_WR_REG(0x0020,239-x);//Lcd光标GRAM水平起始位置
                    LCD_WR_REG(0x0021,y); //Lcd光标垂直GRAM起始位置     

	                LCD_WR_REG16(0x0022); 
	                LCD_WR_DATA16(color);
				
				color = 0x00 ;
			    y++ ;
			    if(y>=320)
				  {
				    x-- ;
					
					if( x<=0 )
		              {
					    
						free(buffer) ;
			            return ;
			          }
					y = 0 ;
				  }
		        
				rgb = 0 ;
     dbe:	20 e0       	ldi	r18, 0x00	; 0
     dc0:	62 16       	cp	r6, r18
     dc2:	22 e0       	ldi	r18, 0x02	; 2
     dc4:	72 06       	cpc	r7, r18
     dc6:	08 f0       	brcs	.+2      	; 0xdca <disp_image+0x14e>
     dc8:	b3 c0       	rjmp	.+358    	; 0xf30 <disp_image+0x2b4>
     dca:	53 01       	movw	r10, r6
     dcc:	a8 0c       	add	r10, r8
     dce:	b9 1c       	adc	r11, r9
     dd0:	83 e0       	ldi	r24, 0x03	; 3
     dd2:	48 16       	cp	r4, r24
     dd4:	19 f5       	brne	.+70     	; 0xe1c <disp_image+0x1a0>
     dd6:	85 2d       	mov	r24, r5
     dd8:	99 27       	eor	r25, r25
     dda:	81 30       	cpi	r24, 0x01	; 1
     ddc:	91 05       	cpc	r25, r1
     dde:	81 f0       	breq	.+32     	; 0xe00 <disp_image+0x184>
     de0:	82 30       	cpi	r24, 0x02	; 2
     de2:	91 05       	cpc	r25, r1
     de4:	1c f4       	brge	.+6      	; 0xdec <disp_image+0x170>
     de6:	89 2b       	or	r24, r25
     de8:	21 f0       	breq	.+8      	; 0xdf2 <disp_image+0x176>
     dea:	6a c0       	rjmp	.+212    	; 0xec0 <disp_image+0x244>
     dec:	02 97       	sbiw	r24, 0x02	; 2
     dee:	99 f0       	breq	.+38     	; 0xe16 <disp_image+0x19a>
     df0:	67 c0       	rjmp	.+206    	; 0xec0 <disp_image+0x244>
     df2:	f5 01       	movw	r30, r10
     df4:	80 81       	ld	r24, Z
     df6:	86 95       	lsr	r24
     df8:	86 95       	lsr	r24
     dfa:	86 95       	lsr	r24
     dfc:	99 27       	eor	r25, r25
     dfe:	5e c0       	rjmp	.+188    	; 0xebc <disp_image+0x240>
     e00:	f5 01       	movw	r30, r10
     e02:	80 81       	ld	r24, Z
     e04:	86 95       	lsr	r24
     e06:	86 95       	lsr	r24
     e08:	99 27       	eor	r25, r25
     e0a:	55 e0       	ldi	r21, 0x05	; 5
     e0c:	88 0f       	add	r24, r24
     e0e:	99 1f       	adc	r25, r25
     e10:	5a 95       	dec	r21
     e12:	e1 f7       	brne	.-8      	; 0xe0c <disp_image+0x190>
     e14:	53 c0       	rjmp	.+166    	; 0xebc <disp_image+0x240>
     e16:	f5 01       	movw	r30, r10
     e18:	80 81       	ld	r24, Z
     e1a:	47 c0       	rjmp	.+142    	; 0xeaa <disp_image+0x22e>
     e1c:	f2 e0       	ldi	r31, 0x02	; 2
     e1e:	4f 16       	cp	r4, r31
     e20:	89 f4       	brne	.+34     	; 0xe44 <disp_image+0x1c8>
     e22:	85 2d       	mov	r24, r5
     e24:	99 27       	eor	r25, r25
     e26:	00 97       	sbiw	r24, 0x00	; 0
     e28:	09 f1       	breq	.+66     	; 0xe6c <disp_image+0x1f0>
     e2a:	01 97       	sbiw	r24, 0x01	; 1
     e2c:	09 f0       	breq	.+2      	; 0xe30 <disp_image+0x1b4>
     e2e:	48 c0       	rjmp	.+144    	; 0xec0 <disp_image+0x244>
     e30:	f5 01       	movw	r30, r10
     e32:	80 81       	ld	r24, Z
     e34:	08 2f       	mov	r16, r24
     e36:	11 27       	eor	r17, r17
     e38:	10 2f       	mov	r17, r16
     e3a:	00 27       	eor	r16, r16
     e3c:	fb a9       	ldd	r31, Y+51	; 0x33
     e3e:	8f 2f       	mov	r24, r31
     e40:	99 27       	eor	r25, r25
     e42:	3c c0       	rjmp	.+120    	; 0xebc <disp_image+0x240>
     e44:	24 e0       	ldi	r18, 0x04	; 4
     e46:	42 16       	cp	r4, r18
     e48:	e1 f5       	brne	.+120    	; 0xec2 <disp_image+0x246>
     e4a:	85 2d       	mov	r24, r5
     e4c:	99 27       	eor	r25, r25
     e4e:	81 30       	cpi	r24, 0x01	; 1
     e50:	91 05       	cpc	r25, r1
     e52:	81 f0       	breq	.+32     	; 0xe74 <disp_image+0x1f8>
     e54:	82 30       	cpi	r24, 0x02	; 2
     e56:	91 05       	cpc	r25, r1
     e58:	1c f4       	brge	.+6      	; 0xe60 <disp_image+0x1e4>
     e5a:	89 2b       	or	r24, r25
     e5c:	39 f0       	breq	.+14     	; 0xe6c <disp_image+0x1f0>
     e5e:	30 c0       	rjmp	.+96     	; 0xec0 <disp_image+0x244>
     e60:	82 30       	cpi	r24, 0x02	; 2
     e62:	91 05       	cpc	r25, r1
     e64:	59 f0       	breq	.+22     	; 0xe7c <disp_image+0x200>
     e66:	03 97       	sbiw	r24, 0x03	; 3
     e68:	69 f0       	breq	.+26     	; 0xe84 <disp_image+0x208>
     e6a:	2a c0       	rjmp	.+84     	; 0xec0 <disp_image+0x244>
     e6c:	f5 01       	movw	r30, r10
     e6e:	f0 81       	ld	r31, Z
     e70:	fb ab       	std	Y+51, r31	; 0x33
     e72:	26 c0       	rjmp	.+76     	; 0xec0 <disp_image+0x244>
     e74:	f5 01       	movw	r30, r10
     e76:	f0 81       	ld	r31, Z
     e78:	fc ab       	std	Y+52, r31	; 0x34
     e7a:	22 c0       	rjmp	.+68     	; 0xec0 <disp_image+0x244>
     e7c:	f5 01       	movw	r30, r10
     e7e:	f0 81       	ld	r31, Z
     e80:	fd ab       	std	Y+53, r31	; 0x35
     e82:	1e c0       	rjmp	.+60     	; 0xec0 <disp_image+0x244>
     e84:	8b a9       	ldd	r24, Y+51	; 0x33
     e86:	86 95       	lsr	r24
     e88:	86 95       	lsr	r24
     e8a:	86 95       	lsr	r24
     e8c:	99 27       	eor	r25, r25
     e8e:	08 2b       	or	r16, r24
     e90:	19 2b       	or	r17, r25
     e92:	8c a9       	ldd	r24, Y+52	; 0x34
     e94:	86 95       	lsr	r24
     e96:	86 95       	lsr	r24
     e98:	99 27       	eor	r25, r25
     e9a:	35 e0       	ldi	r19, 0x05	; 5
     e9c:	88 0f       	add	r24, r24
     e9e:	99 1f       	adc	r25, r25
     ea0:	3a 95       	dec	r19
     ea2:	e1 f7       	brne	.-8      	; 0xe9c <disp_image+0x220>
     ea4:	08 2b       	or	r16, r24
     ea6:	19 2b       	or	r17, r25
     ea8:	8d a9       	ldd	r24, Y+53	; 0x35
     eaa:	86 95       	lsr	r24
     eac:	86 95       	lsr	r24
     eae:	86 95       	lsr	r24
     eb0:	99 27       	eor	r25, r25
     eb2:	98 2f       	mov	r25, r24
     eb4:	88 27       	eor	r24, r24
     eb6:	99 0f       	add	r25, r25
     eb8:	99 0f       	add	r25, r25
     eba:	99 0f       	add	r25, r25
     ebc:	08 2b       	or	r16, r24
     ebe:	19 2b       	or	r17, r25
     ec0:	53 94       	inc	r5
     ec2:	08 94       	sec
     ec4:	61 1c       	adc	r6, r1
     ec6:	71 1c       	adc	r7, r1
     ec8:	08 94       	sec
     eca:	a1 1c       	adc	r10, r1
     ecc:	b1 1c       	adc	r11, r1
     ece:	54 14       	cp	r5, r4
     ed0:	49 f5       	brne	.+82     	; 0xf24 <disp_image+0x2a8>
     ed2:	8f ee       	ldi	r24, 0xEF	; 239
     ed4:	90 e0       	ldi	r25, 0x00	; 0
     ed6:	29 a9       	ldd	r18, Y+49	; 0x31
     ed8:	82 1b       	sub	r24, r18
     eda:	91 09       	sbc	r25, r1
     edc:	bc 01       	movw	r22, r24
     ede:	80 e2       	ldi	r24, 0x20	; 32
     ee0:	90 e0       	ldi	r25, 0x00	; 0
     ee2:	0e 94 30 11 	call	0x2260 <LCD_WR_REG>
     ee6:	6e a9       	ldd	r22, Y+54	; 0x36
     ee8:	7f a9       	ldd	r23, Y+55	; 0x37
     eea:	81 e2       	ldi	r24, 0x21	; 33
     eec:	90 e0       	ldi	r25, 0x00	; 0
     eee:	0e 94 30 11 	call	0x2260 <LCD_WR_REG>
     ef2:	82 e2       	ldi	r24, 0x22	; 34
     ef4:	90 e0       	ldi	r25, 0x00	; 0
     ef6:	0e 94 0e 11 	call	0x221c <LCD_WR_REG16>
     efa:	c8 01       	movw	r24, r16
     efc:	0e 94 f0 10 	call	0x21e0 <LCD_WR_DATA16>
     f00:	00 e0       	ldi	r16, 0x00	; 0
     f02:	10 e0       	ldi	r17, 0x00	; 0
     f04:	8e a9       	ldd	r24, Y+54	; 0x36
     f06:	9f a9       	ldd	r25, Y+55	; 0x37
     f08:	01 96       	adiw	r24, 0x01	; 1
     f0a:	9f ab       	std	Y+55, r25	; 0x37
     f0c:	8e ab       	std	Y+54, r24	; 0x36
     f0e:	80 54       	subi	r24, 0x40	; 64
     f10:	91 40       	sbci	r25, 0x01	; 1
     f12:	38 f0       	brcs	.+14     	; 0xf22 <disp_image+0x2a6>
     f14:	f9 a9       	ldd	r31, Y+49	; 0x31
     f16:	f1 50       	subi	r31, 0x01	; 1
     f18:	f9 ab       	std	Y+49, r31	; 0x31
     f1a:	ff 23       	and	r31, r31
     f1c:	e1 f1       	breq	.+120    	; 0xf96 <disp_image+0x31a>
     f1e:	1f ab       	std	Y+55, r17	; 0x37
     f20:	0e ab       	std	Y+54, r16	; 0x36
     f22:	55 24       	eor	r5, r5
     f24:	20 e0       	ldi	r18, 0x00	; 0
     f26:	62 16       	cp	r6, r18
     f28:	22 e0       	ldi	r18, 0x02	; 2
     f2a:	72 06       	cpc	r7, r18
     f2c:	08 f4       	brcc	.+2      	; 0xf30 <disp_image+0x2b4>
     f2e:	50 cf       	rjmp	.-352    	; 0xdd0 <disp_image+0x154>
     f30:	08 94       	sec
     f32:	21 1c       	adc	r2, r1
     f34:	31 1c       	adc	r3, r1
     f36:	22 cf       	rjmp	.-444    	; 0xd7c <disp_image+0x100>
			 }
			 
			
		}
	   
	 }  // 读取完一簇数据
	 
	 free(buffer) ;
     f38:	c4 01       	movw	r24, r8
     f3a:	0e 94 0f 15 	call	0x2a1e <free>
	 p=FAT_NextCluster(p);//读下一簇数据			//read next cluster
     f3e:	c7 01       	movw	r24, r14
     f40:	b6 01       	movw	r22, r12
     f42:	0e 94 e6 0b 	call	0x17cc <FAT_NextCluster>
     f46:	6b 01       	movw	r12, r22
     f48:	7c 01       	movw	r14, r24
	 buffer=malloc(512);	
     f4a:	80 e0       	ldi	r24, 0x00	; 0
     f4c:	92 e0       	ldi	r25, 0x02	; 2
     f4e:	0e 94 75 14 	call	0x28ea <malloc>
     f52:	4c 01       	movw	r8, r24
	
	if(p == 0x0fffffff || p == 0x0ffffff8 || (FAT32_Enable == 0 && p == 0xffff))//如果无后续簇则结束，	//no more cluster
     f54:	8f ef       	ldi	r24, 0xFF	; 255
     f56:	c8 16       	cp	r12, r24
     f58:	8f ef       	ldi	r24, 0xFF	; 255
     f5a:	d8 06       	cpc	r13, r24
     f5c:	8f ef       	ldi	r24, 0xFF	; 255
     f5e:	e8 06       	cpc	r14, r24
     f60:	8f e0       	ldi	r24, 0x0F	; 15
     f62:	f8 06       	cpc	r15, r24
     f64:	c1 f0       	breq	.+48     	; 0xf96 <disp_image+0x31a>
     f66:	98 ef       	ldi	r25, 0xF8	; 248
     f68:	c9 16       	cp	r12, r25
     f6a:	9f ef       	ldi	r25, 0xFF	; 255
     f6c:	d9 06       	cpc	r13, r25
     f6e:	9f ef       	ldi	r25, 0xFF	; 255
     f70:	e9 06       	cpc	r14, r25
     f72:	9f e0       	ldi	r25, 0x0F	; 15
     f74:	f9 06       	cpc	r15, r25
     f76:	79 f0       	breq	.+30     	; 0xf96 <disp_image+0x31a>
     f78:	80 91 47 01 	lds	r24, 0x0147
     f7c:	88 23       	and	r24, r24
     f7e:	09 f0       	breq	.+2      	; 0xf82 <disp_image+0x306>
     f80:	fb ce       	rjmp	.-522    	; 0xd78 <disp_image+0xfc>
     f82:	ef ef       	ldi	r30, 0xFF	; 255
     f84:	ce 16       	cp	r12, r30
     f86:	ef ef       	ldi	r30, 0xFF	; 255
     f88:	de 06       	cpc	r13, r30
     f8a:	e0 e0       	ldi	r30, 0x00	; 0
     f8c:	ee 06       	cpc	r14, r30
     f8e:	e0 e0       	ldi	r30, 0x00	; 0
     f90:	fe 06       	cpc	r15, r30
     f92:	09 f0       	breq	.+2      	; 0xf96 <disp_image+0x31a>
     f94:	f1 ce       	rjmp	.-542    	; 0xd78 <disp_image+0xfc>
		{
		        free(buffer) ;
     f96:	c4 01       	movw	r24, r8
     f98:	0e 94 0f 15 	call	0x2a1e <free>
     f9c:	e7 96       	adiw	r28, 0x37	; 55
     f9e:	0f b6       	in	r0, 0x3f	; 63
     fa0:	f8 94       	cli
     fa2:	de bf       	out	0x3e, r29	; 62
     fa4:	0f be       	out	0x3f, r0	; 63
     fa6:	cd bf       	out	0x3d, r28	; 61
     fa8:	df 91       	pop	r29
     faa:	cf 91       	pop	r28
     fac:	1f 91       	pop	r17
     fae:	0f 91       	pop	r16
     fb0:	ff 90       	pop	r15
     fb2:	ef 90       	pop	r14
     fb4:	df 90       	pop	r13
     fb6:	cf 90       	pop	r12
     fb8:	bf 90       	pop	r11
     fba:	af 90       	pop	r10
     fbc:	9f 90       	pop	r9
     fbe:	8f 90       	pop	r8
     fc0:	7f 90       	pop	r7
     fc2:	6f 90       	pop	r6
     fc4:	5f 90       	pop	r5
     fc6:	4f 90       	pop	r4
     fc8:	3f 90       	pop	r3
     fca:	2f 90       	pop	r2
     fcc:	08 95       	ret

00000fce <main>:
				return ;
		}
	 
  }
		
	free(buffer) ;
  
 }


//CPU初始化//
int main(void) 
{
     fce:	cf e5       	ldi	r28, 0x5F	; 95
     fd0:	d8 e0       	ldi	r29, 0x08	; 8
     fd2:	de bf       	out	0x3e, r29	; 62
     fd4:	cd bf       	out	0x3d, r28	; 61
  unsigned char i, x,retry=0,kn=0,Sensor_ID;
     fd6:	ff 24       	eor	r15, r15
     fd8:	cf 2d       	mov	r28, r15
  uint8 ok,er,r1 ;
  uint32 capacity ;
  unsigned int y ;;
	EXCLK_DDR|=1<<EXCLK_BIT ;//en_exclk 引脚输出
     fda:	b8 9a       	sbi	0x17, 0	; 23
	HC245_OE_DDR|=1<<HC245_OE_BIT;//en_245引脚输出
     fdc:	8e 9a       	sbi	0x11, 6	; 17
	DDRD&=~(0x20);
     fde:	8d 98       	cbi	0x11, 5	; 17
	PORTD|=0X20;
     fe0:	95 9a       	sbi	0x12, 5	; 18
	
	DISEN_EXCLK;//禁止外部CLK，使单片机WR与TFT WR相连	
     fe2:	c0 98       	cbi	0x18, 0	; 24
	DISEN_245;//禁止外部数据线，使单片机数据与TFT数据线相连
     fe4:	96 9a       	sbi	0x12, 6	; 18
	delay_ms(3000);
     fe6:	88 eb       	ldi	r24, 0xB8	; 184
     fe8:	9b e0       	ldi	r25, 0x0B	; 11
     fea:	0e 94 dc 10 	call	0x21b8 <delay_ms>
	DATA_OUPUT(); //数据线输出，准备连数据线到TFT
     fee:	8f ef       	ldi	r24, 0xFF	; 255
     ff0:	84 bb       	out	0x14, r24	; 20
    LCD_Init();
     ff2:	0e 94 7e 11 	call	0x22fc <LCD_Init>
	MMC_SD_Init();//初始化spi口
     ff6:	0e 94 bf 08 	call	0x117e <MMC_SD_Init>
	
	//GUI_Point(0, 0,0xffff) ;
	LCD_write_english_string(20,150,"Guanfu_wang  20110412",RED,BLACK);
     ffa:	00 e0       	ldi	r16, 0x00	; 0
     ffc:	10 e0       	ldi	r17, 0x00	; 0
     ffe:	20 e0       	ldi	r18, 0x00	; 0
    1000:	38 ef       	ldi	r19, 0xF8	; 248
    1002:	40 e6       	ldi	r20, 0x60	; 96
    1004:	50 e0       	ldi	r21, 0x00	; 0
    1006:	66 e9       	ldi	r22, 0x96	; 150
    1008:	70 e0       	ldi	r23, 0x00	; 0
    100a:	84 e1       	ldi	r24, 0x14	; 20
    100c:	90 e0       	ldi	r25, 0x00	; 0
    100e:	0e 94 88 13 	call	0x2710 <LCD_write_english_string>
	LCD_write_english_string(20,170,"Atmega32 & ILI9328 FOR OV7670 REV4.2",GREEN,BLACK);
    1012:	20 ee       	ldi	r18, 0xE0	; 224
    1014:	37 e0       	ldi	r19, 0x07	; 7
    1016:	46 e7       	ldi	r20, 0x76	; 118
    1018:	50 e0       	ldi	r21, 0x00	; 0
    101a:	6a ea       	ldi	r22, 0xAA	; 170
    101c:	70 e0       	ldi	r23, 0x00	; 0
    101e:	84 e1       	ldi	r24, 0x14	; 20
    1020:	90 e0       	ldi	r25, 0x00	; 0
    1022:	0e 94 88 13 	call	0x2710 <LCD_write_english_string>
	
	if(PIND&0X20)
    1026:	80 b3       	in	r24, 0x10	; 16
    1028:	99 27       	eor	r25, r25
    102a:	8c 01       	movw	r16, r24
    102c:	00 72       	andi	r16, 0x20	; 32
    102e:	10 70       	andi	r17, 0x00	; 0
    1030:	85 ff       	sbrs	r24, 5
    1032:	27 c0       	rjmp	.+78     	; 0x1082 <main+0xb4>
	{
	   kn=0;
		LCD_write_english_string(20,190,"OV7670 Init......",BLUE,BLACK);
    1034:	00 e0       	ldi	r16, 0x00	; 0
    1036:	10 e0       	ldi	r17, 0x00	; 0
    1038:	2f e1       	ldi	r18, 0x1F	; 31
    103a:	30 e0       	ldi	r19, 0x00	; 0
    103c:	4b e9       	ldi	r20, 0x9B	; 155
    103e:	50 e0       	ldi	r21, 0x00	; 0
    1040:	6e eb       	ldi	r22, 0xBE	; 190
    1042:	70 e0       	ldi	r23, 0x00	; 0
    1044:	84 e1       	ldi	r24, 0x14	; 20
    1046:	90 e0       	ldi	r25, 0x00	; 0
    1048:	0e 94 88 13 	call	0x2710 <LCD_write_english_string>
	
	   while(1!=OV7670_init());//初始化ov7660
    104c:	0e 94 7c 05 	call	0xaf8 <OV7670_init>
    1050:	81 30       	cpi	r24, 0x01	; 1
    1052:	e1 f7       	brne	.-8      	; 0x104c <main+0x7e>
	  // while(1!=rdOV7670Reg(0x0b, &Sensor_ID));//读ID
	//delay_ms(1000);
	   LCD_write_english_string(20,190,"OV7670 Init  0K  ",RED,BLACK);
    1054:	00 e0       	ldi	r16, 0x00	; 0
    1056:	10 e0       	ldi	r17, 0x00	; 0
    1058:	20 e0       	ldi	r18, 0x00	; 0
    105a:	38 ef       	ldi	r19, 0xF8	; 248
    105c:	4d ea       	ldi	r20, 0xAD	; 173
    105e:	50 e0       	ldi	r21, 0x00	; 0
    1060:	6e eb       	ldi	r22, 0xBE	; 190
    1062:	70 e0       	ldi	r23, 0x00	; 0
    1064:	84 e1       	ldi	r24, 0x14	; 20
    1066:	90 e0       	ldi	r25, 0x00	; 0
    1068:	0e 94 88 13 	call	0x2710 <LCD_write_english_string>
	   delay_ms(1000);
    106c:	88 ee       	ldi	r24, 0xE8	; 232
    106e:	93 e0       	ldi	r25, 0x03	; 3
    1070:	0e 94 dc 10 	call	0x21b8 <delay_ms>
	   LCD_Clear(0);
    1074:	c8 01       	movw	r24, r16
    1076:	0e 94 3b 11 	call	0x2276 <LCD_Clear>
	   
       DATA_INPUT(); 
    107a:	14 ba       	out	0x14, r1	; 20
	   Init_INT0();
    107c:	0e 94 b1 05 	call	0xb62 <Init_INT0>
    1080:	44 c0       	rjmp	.+136    	; 0x110a <main+0x13c>
	
	}
	else
	{
	  kn=1;
    1082:	e1 e0       	ldi	r30, 0x01	; 1
    1084:	fe 2e       	mov	r15, r30
	  LCD_write_english_string(20,190,"TF Card Init......",BLUE,BLACK);
    1086:	2f e1       	ldi	r18, 0x1F	; 31
    1088:	30 e0       	ldi	r19, 0x00	; 0
    108a:	4f eb       	ldi	r20, 0xBF	; 191
    108c:	50 e0       	ldi	r21, 0x00	; 0
    108e:	09 c0       	rjmp	.+18     	; 0x10a2 <main+0xd4>
	//OSCCAL = 0x00;//最小RC振荡频率
	   while(MMC_SD_Reset()&(retry<21))//初始化SD卡					//sd card initialize
	   {
		  retry++;
    1090:	cf 5f       	subi	r28, 0xFF	; 255
		  if(retry>20)
    1092:	c5 31       	cpi	r28, 0x15	; 21
    1094:	60 f0       	brcs	.+24     	; 0x10ae <main+0xe0>
		  {
             LCD_write_english_string(20,190,"TF Card Init....NG",BLUE,BLACK);
    1096:	00 e0       	ldi	r16, 0x00	; 0
    1098:	10 e0       	ldi	r17, 0x00	; 0
    109a:	2f e1       	ldi	r18, 0x1F	; 31
    109c:	30 e0       	ldi	r19, 0x00	; 0
    109e:	42 ed       	ldi	r20, 0xD2	; 210
    10a0:	50 e0       	ldi	r21, 0x00	; 0
    10a2:	6e eb       	ldi	r22, 0xBE	; 190
    10a4:	70 e0       	ldi	r23, 0x00	; 0
    10a6:	84 e1       	ldi	r24, 0x14	; 20
    10a8:	90 e0       	ldi	r25, 0x00	; 0
    10aa:	0e 94 88 13 	call	0x2710 <LCD_write_english_string>
    10ae:	0e 94 04 09 	call	0x1208 <MMC_SD_Reset>
    10b2:	c5 31       	cpi	r28, 0x15	; 21
    10b4:	10 f4       	brcc	.+4      	; 0x10ba <main+0xec>
    10b6:	80 fd       	sbrc	r24, 0
    10b8:	eb cf       	rjmp	.-42     	; 0x1090 <main+0xc2>
		  
		  }	
	   } 
	   LCD_write_english_string(20,190,"TF Card Init....OK",BLUE,BLACK);  
    10ba:	00 e0       	ldi	r16, 0x00	; 0
    10bc:	10 e0       	ldi	r17, 0x00	; 0
    10be:	2f e1       	ldi	r18, 0x1F	; 31
    10c0:	30 e0       	ldi	r19, 0x00	; 0
    10c2:	45 ee       	ldi	r20, 0xE5	; 229
    10c4:	50 e0       	ldi	r21, 0x00	; 0
    10c6:	6e eb       	ldi	r22, 0xBE	; 190
    10c8:	70 e0       	ldi	r23, 0x00	; 0
    10ca:	84 e1       	ldi	r24, 0x14	; 20
    10cc:	90 e0       	ldi	r25, 0x00	; 0
    10ce:	0e 94 88 13 	call	0x2710 <LCD_write_english_string>
	   LCD_write_english_string(20,210,"FAT Init......",BLUE,BLACK);
    10d2:	2f e1       	ldi	r18, 0x1F	; 31
    10d4:	30 e0       	ldi	r19, 0x00	; 0
    10d6:	48 ef       	ldi	r20, 0xF8	; 248
    10d8:	50 e0       	ldi	r21, 0x00	; 0
    10da:	62 ed       	ldi	r22, 0xD2	; 210
    10dc:	70 e0       	ldi	r23, 0x00	; 0
    10de:	84 e1       	ldi	r24, 0x14	; 20
    10e0:	90 e0       	ldi	r25, 0x00	; 0
    10e2:	0e 94 88 13 	call	0x2710 <LCD_write_english_string>
	   while(FAT_Init()){}//初始化文件系统 支持FAT16和FAT32	//initialize file system  FAT16 and FAT32 are supported
    10e6:	0e 94 98 0a 	call	0x1530 <FAT_Init>
    10ea:	88 23       	and	r24, r24
    10ec:	e1 f7       	brne	.-8      	; 0x10e6 <main+0x118>
       SearchInit();  //搜索文件初始化
    10ee:	0e 94 bb 0e 	call	0x1d76 <SearchInit>
	   LCD_write_english_string(20,210,"FAT Init....OK",BLUE,BLACK);
    10f2:	00 e0       	ldi	r16, 0x00	; 0
    10f4:	10 e0       	ldi	r17, 0x00	; 0
    10f6:	2f e1       	ldi	r18, 0x1F	; 31
    10f8:	30 e0       	ldi	r19, 0x00	; 0
    10fa:	47 e0       	ldi	r20, 0x07	; 7
    10fc:	51 e0       	ldi	r21, 0x01	; 1
    10fe:	62 ed       	ldi	r22, 0xD2	; 210
    1100:	70 e0       	ldi	r23, 0x00	; 0
    1102:	84 e1       	ldi	r24, 0x14	; 20
    1104:	90 e0       	ldi	r25, 0x00	; 0
    1106:	0e 94 88 13 	call	0x2710 <LCD_write_english_string>
	}
	

    while(1)
    {	
	    if(kn)
    110a:	ff 20       	and	r15, r15
    110c:	f1 f3       	breq	.-4      	; 0x110a <main+0x13c>
		{
		 disp_image() ;
    110e:	0e 94 3e 06 	call	0xc7c <disp_image>
		 delay_ms(20000) ;
    1112:	80 e2       	ldi	r24, 0x20	; 32
    1114:	9e e4       	ldi	r25, 0x4E	; 78
    1116:	0e 94 dc 10 	call	0x21b8 <delay_ms>
		 delay_ms(20000) ;
    111a:	80 e2       	ldi	r24, 0x20	; 32
    111c:	9e e4       	ldi	r25, 0x4E	; 78
    111e:	0e 94 dc 10 	call	0x21b8 <delay_ms>
		                              //Print_hz(72,30,16,"汉字显示测试",0xffff,0x0000) ;
		 if(image_count<image_all)
    1122:	20 91 24 01 	lds	r18, 0x0124
    1126:	30 91 25 01 	lds	r19, 0x0125
    112a:	80 91 22 01 	lds	r24, 0x0122
    112e:	90 91 23 01 	lds	r25, 0x0123
    1132:	28 17       	cp	r18, r24
    1134:	39 07       	cpc	r19, r25
    1136:	38 f4       	brcc	.+14     	; 0x1146 <main+0x178>
		    {
		      image_count ++ ;
    1138:	2f 5f       	subi	r18, 0xFF	; 255
    113a:	3f 4f       	sbci	r19, 0xFF	; 255
    113c:	30 93 25 01 	sts	0x0125, r19
    1140:	20 93 24 01 	sts	0x0124, r18
    1144:	e2 cf       	rjmp	.-60     	; 0x110a <main+0x13c>
		    }
		 else 
		    {
			  image_count = 1 ;
    1146:	81 e0       	ldi	r24, 0x01	; 1
    1148:	90 e0       	ldi	r25, 0x00	; 0
    114a:	90 93 25 01 	sts	0x0125, r25
    114e:	80 93 24 01 	sts	0x0124, r24
    1152:	db cf       	rjmp	.-74     	; 0x110a <main+0x13c>

00001154 <SPI_Low>:

//低速模式  //spi low speed
void SPI_Low(void)
{
	SPCR =   _BV(SPE)|_BV(MSTR)|_BV(SPR1)|_BV(SPR0);
    1154:	83 e5       	ldi	r24, 0x53	; 83
    1156:	8d b9       	out	0x0d, r24	; 13
	SPSR &= ~_BV(SPI2X);
    1158:	70 98       	cbi	0x0e, 0	; 14
    115a:	08 95       	ret

0000115c <SPI_High>:
}

//高速模式	//spi full speed
void SPI_High(void)
{
	SPCR =  _BV(SPE)|_BV(MSTR);
    115c:	80 e5       	ldi	r24, 0x50	; 80
    115e:	8d b9       	out	0x0d, r24	; 13
	SPSR |= _BV(SPI2X);
    1160:	70 9a       	sbi	0x0e, 0	; 14
    1162:	08 95       	ret

00001164 <SPI_Init>:
}

//端口初始化，模式初始化  //port initialize
void SPI_Init(void)
{   
    SPI_CS_int() ;
    1164:	d4 9a       	sbi	0x1a, 4	; 26
	DDR_INI();
    1166:	87 b3       	in	r24, 0x17	; 23
    1168:	80 6a       	ori	r24, 0xA0	; 160
    116a:	87 bb       	out	0x17, r24	; 23
	SPI_Low();
    116c:	0e 94 aa 08 	call	0x1154 <SPI_Low>
    1170:	08 95       	ret

00001172 <SPI_WriteByte>:
}

//写读一个字节			//read and write one byte
uint8 SPI_WriteByte(uint8 val)
{
	SPDR = val;
    1172:	8f b9       	out	0x0f, r24	; 15
	while(!(SPSR & _BV(SPIF)));
    1174:	77 9b       	sbis	0x0e, 7	; 14
    1176:	fe cf       	rjmp	.-4      	; 0x1174 <SPI_WriteByte+0x2>
	return SPDR;
    1178:	8f b1       	in	r24, 0x0f	; 15
}
    117a:	99 27       	eor	r25, r25
    117c:	08 95       	ret

0000117e <MMC_SD_Init>:

/*uint8 SPI_ReadByte(void)
{
	SPDR = 0xff;
	while(!(SPSR & _BV(SPIF)));
	return SPDR;
}*/
//sd卡初始化		//sd card initialize
void MMC_SD_Init(void)
{
	SPI_Init();
    117e:	0e 94 b2 08 	call	0x1164 <SPI_Init>
	SPI_CS_Deassert();
    1182:	dc 9a       	sbi	0x1b, 4	; 27
    1184:	08 95       	ret

00001186 <MMC_SD_SendCommand>:
}

//sd卡写命令		//sd send command
uint8 MMC_SD_SendCommand(uint8 cmd, uint32 arg)
{
    1186:	cf 92       	push	r12
    1188:	df 92       	push	r13
    118a:	ef 92       	push	r14
    118c:	ff 92       	push	r15
    118e:	0f 93       	push	r16
    1190:	1f 93       	push	r17
    1192:	cf 93       	push	r28
    1194:	d8 2e       	mov	r13, r24
    1196:	7a 01       	movw	r14, r20
    1198:	8b 01       	movw	r16, r22
	uint8 r1;
	uint8 retry=0;
    119a:	cc 24       	eor	r12, r12
	
	SPI_WriteByte(0xff);
    119c:	8f ef       	ldi	r24, 0xFF	; 255
    119e:	0e 94 b9 08 	call	0x1172 <SPI_WriteByte>
	SPI_CS_Assert();
    11a2:	dc 98       	cbi	0x1b, 4	; 27
	
	SPI_WriteByte(cmd | 0x40);//分别写入命令	//send command
    11a4:	8d 2d       	mov	r24, r13
    11a6:	80 64       	ori	r24, 0x40	; 64
    11a8:	0e 94 b9 08 	call	0x1172 <SPI_WriteByte>
	SPI_WriteByte(arg>>24);
    11ac:	81 2f       	mov	r24, r17
    11ae:	99 27       	eor	r25, r25
    11b0:	aa 27       	eor	r26, r26
    11b2:	bb 27       	eor	r27, r27
    11b4:	0e 94 b9 08 	call	0x1172 <SPI_WriteByte>
	SPI_WriteByte(arg>>16);
    11b8:	c8 01       	movw	r24, r16
    11ba:	aa 27       	eor	r26, r26
    11bc:	bb 27       	eor	r27, r27
    11be:	0e 94 b9 08 	call	0x1172 <SPI_WriteByte>
	SPI_WriteByte(arg>>8);
    11c2:	bb 27       	eor	r27, r27
    11c4:	a1 2f       	mov	r26, r17
    11c6:	90 2f       	mov	r25, r16
    11c8:	8f 2d       	mov	r24, r15
    11ca:	0e 94 b9 08 	call	0x1172 <SPI_WriteByte>
	SPI_WriteByte(arg);
    11ce:	8e 2d       	mov	r24, r14
    11d0:	0e 94 b9 08 	call	0x1172 <SPI_WriteByte>
	SPI_WriteByte(0x95);
    11d4:	85 e9       	ldi	r24, 0x95	; 149
    11d6:	0e 94 b9 08 	call	0x1172 <SPI_WriteByte>
	
	while((r1 = SPI_WriteByte(0xff)) == 0xff)//等待响应，	//wait response
    11da:	02 c0       	rjmp	.+4      	; 0x11e0 <MMC_SD_SendCommand+0x5a>
		if(retry++ > 0xfe) break;//超时退出					//time out error
    11dc:	c3 94       	inc	r12
    11de:	31 f0       	breq	.+12     	; 0x11ec <MMC_SD_SendCommand+0x66>
    11e0:	8f ef       	ldi	r24, 0xFF	; 255
    11e2:	0e 94 b9 08 	call	0x1172 <SPI_WriteByte>
    11e6:	c8 2f       	mov	r28, r24
    11e8:	8f 3f       	cpi	r24, 0xFF	; 255
    11ea:	c1 f3       	breq	.-16     	; 0x11dc <MMC_SD_SendCommand+0x56>

	SPI_CS_Deassert();
    11ec:	dc 9a       	sbi	0x1b, 4	; 27
	SPI_WriteByte(0xff);				// extra 8 CLK
    11ee:	8f ef       	ldi	r24, 0xFF	; 255
    11f0:	0e 94 b9 08 	call	0x1172 <SPI_WriteByte>

	return r1;//返回状态值					//return state
}
    11f4:	8c 2f       	mov	r24, r28
    11f6:	99 27       	eor	r25, r25
    11f8:	cf 91       	pop	r28
    11fa:	1f 91       	pop	r17
    11fc:	0f 91       	pop	r16
    11fe:	ff 90       	pop	r15
    1200:	ef 90       	pop	r14
    1202:	df 90       	pop	r13
    1204:	cf 90       	pop	r12
    1206:	08 95       	ret

00001208 <MMC_SD_Reset>:

//sd卡复位		//reset sd card (software)
uint8 MMC_SD_Reset(void)
{
    1208:	1f 93       	push	r17
    120a:	cf 93       	push	r28
	uint8 i;
	uint8 retry;
	uint8 r1=0;
	retry = 0;
    120c:	10 e0       	ldi	r17, 0x00	; 0
	SPI_Low();
    120e:	0e 94 aa 08 	call	0x1154 <SPI_Low>
    1212:	c9 e0       	ldi	r28, 0x09	; 9
	do
	{
		for(i=0;i<10;i++) SPI_WriteByte(0xff);
    1214:	8f ef       	ldi	r24, 0xFF	; 255
    1216:	0e 94 b9 08 	call	0x1172 <SPI_WriteByte>
    121a:	c1 50       	subi	r28, 0x01	; 1
    121c:	c7 ff       	sbrs	r28, 7
    121e:	fa cf       	rjmp	.-12     	; 0x1214 <MMC_SD_Reset+0xc>
		r1 = MMC_SD_SendCommand(0, 0);//发idle命令	//send idle command
    1220:	40 e0       	ldi	r20, 0x00	; 0
    1222:	50 e0       	ldi	r21, 0x00	; 0
    1224:	60 e0       	ldi	r22, 0x00	; 0
    1226:	70 e0       	ldi	r23, 0x00	; 0
    1228:	80 e0       	ldi	r24, 0x00	; 0
    122a:	0e 94 c3 08 	call	0x1186 <MMC_SD_SendCommand>
		retry++;
    122e:	1f 5f       	subi	r17, 0xFF	; 255
		if(retry>0xfe) return 1;//超时退出		//time out
    1230:	1f 3f       	cpi	r17, 0xFF	; 255
    1232:	69 f0       	breq	.+26     	; 0x124e <MMC_SD_Reset+0x46>
	} while(r1 != 0x01);	
    1234:	81 30       	cpi	r24, 0x01	; 1
    1236:	69 f7       	brne	.-38     	; 0x1212 <MMC_SD_Reset+0xa>
    1238:	10 e0       	ldi	r17, 0x00	; 0


	retry = 0;
	do
	{
		r1 = MMC_SD_SendCommand(1, 0);//发active命令	//send active command
    123a:	40 e0       	ldi	r20, 0x00	; 0
    123c:	50 e0       	ldi	r21, 0x00	; 0
    123e:	60 e0       	ldi	r22, 0x00	; 0
    1240:	70 e0       	ldi	r23, 0x00	; 0
    1242:	81 e0       	ldi	r24, 0x01	; 1
    1244:	0e 94 c3 08 	call	0x1186 <MMC_SD_SendCommand>
		retry++;
    1248:	1f 5f       	subi	r17, 0xFF	; 255
		if(retry>0xfe) return 1;//超时退出		//time out
    124a:	1f 3f       	cpi	r17, 0xFF	; 255
    124c:	19 f4       	brne	.+6      	; 0x1254 <MMC_SD_Reset+0x4c>
    124e:	81 e0       	ldi	r24, 0x01	; 1
    1250:	90 e0       	ldi	r25, 0x00	; 0
    1252:	14 c0       	rjmp	.+40     	; 0x127c <MMC_SD_Reset+0x74>
	} while(r1);
    1254:	88 23       	and	r24, r24
    1256:	89 f7       	brne	.-30     	; 0x123a <MMC_SD_Reset+0x32>
	SPI_High();
    1258:	0e 94 ae 08 	call	0x115c <SPI_High>
	r1 = MMC_SD_SendCommand(59, 0);//关crc		//disable CRC
    125c:	40 e0       	ldi	r20, 0x00	; 0
    125e:	50 e0       	ldi	r21, 0x00	; 0
    1260:	60 e0       	ldi	r22, 0x00	; 0
    1262:	70 e0       	ldi	r23, 0x00	; 0
    1264:	8b e3       	ldi	r24, 0x3B	; 59
    1266:	0e 94 c3 08 	call	0x1186 <MMC_SD_SendCommand>

	r1 = MMC_SD_SendCommand(16, 512);//设扇区大小512	//set sector size to 512
    126a:	40 e0       	ldi	r20, 0x00	; 0
    126c:	52 e0       	ldi	r21, 0x02	; 2
    126e:	60 e0       	ldi	r22, 0x00	; 0
    1270:	70 e0       	ldi	r23, 0x00	; 0
    1272:	80 e1       	ldi	r24, 0x10	; 16
    1274:	0e 94 c3 08 	call	0x1186 <MMC_SD_SendCommand>
	return 0;//正常返回		//normal return
    1278:	80 e0       	ldi	r24, 0x00	; 0
    127a:	90 e0       	ldi	r25, 0x00	; 0
    127c:	cf 91       	pop	r28
    127e:	1f 91       	pop	r17
    1280:	08 95       	ret

00001282 <MMC_SD_ReadSingleBlock>:
}

//读一个扇区		//read one sector
uint8 MMC_SD_ReadSingleBlock(uint32 sector, uint8* buffer)
{
    1282:	0f 93       	push	r16
    1284:	1f 93       	push	r17
    1286:	cf 93       	push	r28
    1288:	df 93       	push	r29
    128a:	dc 01       	movw	r26, r24
    128c:	cb 01       	movw	r24, r22
    128e:	8a 01       	movw	r16, r20
	uint8 r1;
	uint16 i;
	uint16 retry=0;
    1290:	c0 e0       	ldi	r28, 0x00	; 0
    1292:	d0 e0       	ldi	r29, 0x00	; 0

	r1 = MMC_SD_SendCommand(17, sector<<9);//读命令	//read command
    1294:	39 e0       	ldi	r19, 0x09	; 9
    1296:	88 0f       	add	r24, r24
    1298:	99 1f       	adc	r25, r25
    129a:	aa 1f       	adc	r26, r26
    129c:	bb 1f       	adc	r27, r27
    129e:	3a 95       	dec	r19
    12a0:	d1 f7       	brne	.-12     	; 0x1296 <MMC_SD_ReadSingleBlock+0x14>
    12a2:	ac 01       	movw	r20, r24
    12a4:	bd 01       	movw	r22, r26
    12a6:	81 e1       	ldi	r24, 0x11	; 17
    12a8:	0e 94 c3 08 	call	0x1186 <MMC_SD_SendCommand>
	
	if(r1 != 0x00)
    12ac:	88 23       	and	r24, r24
    12ae:	31 f0       	breq	.+12     	; 0x12bc <MMC_SD_ReadSingleBlock+0x3a>
		return r1;
    12b0:	99 27       	eor	r25, r25
    12b2:	24 c0       	rjmp	.+72     	; 0x12fc <MMC_SD_ReadSingleBlock+0x7a>

	SPI_CS_Assert();
	//等数据的开始	//wait to start recieve data
	while(SPI_WriteByte(0xff) != 0xfe)if(retry++ > 0xfffe){SPI_CS_Deassert();return 1;}
    12b4:	dc 9a       	sbi	0x1b, 4	; 27
    12b6:	81 e0       	ldi	r24, 0x01	; 1
    12b8:	90 e0       	ldi	r25, 0x00	; 0
    12ba:	20 c0       	rjmp	.+64     	; 0x12fc <MMC_SD_ReadSingleBlock+0x7a>
    12bc:	dc 98       	cbi	0x1b, 4	; 27
    12be:	02 c0       	rjmp	.+4      	; 0x12c4 <MMC_SD_ReadSingleBlock+0x42>
    12c0:	21 96       	adiw	r28, 0x01	; 1
    12c2:	c1 f3       	breq	.-16     	; 0x12b4 <MMC_SD_ReadSingleBlock+0x32>
    12c4:	8f ef       	ldi	r24, 0xFF	; 255
    12c6:	0e 94 b9 08 	call	0x1172 <SPI_WriteByte>
    12ca:	8e 3f       	cpi	r24, 0xFE	; 254
    12cc:	c9 f7       	brne	.-14     	; 0x12c0 <MMC_SD_ReadSingleBlock+0x3e>
    12ce:	cf ef       	ldi	r28, 0xFF	; 255
    12d0:	d1 e0       	ldi	r29, 0x01	; 1

	for(i=0; i<512; i++)//读512个数据	//read 512 bytes
	{
		*buffer++ = SPI_WriteByte(0xff);
    12d2:	8f ef       	ldi	r24, 0xFF	; 255
    12d4:	0e 94 b9 08 	call	0x1172 <SPI_WriteByte>
    12d8:	f8 01       	movw	r30, r16
    12da:	81 93       	st	Z+, r24
    12dc:	8f 01       	movw	r16, r30
    12de:	21 97       	sbiw	r28, 0x01	; 1
    12e0:	d7 ff       	sbrs	r29, 7
    12e2:	f7 cf       	rjmp	.-18     	; 0x12d2 <MMC_SD_ReadSingleBlock+0x50>
	}

	SPI_WriteByte(0xff);//伪crc    //dummy crc
    12e4:	8f ef       	ldi	r24, 0xFF	; 255
    12e6:	0e 94 b9 08 	call	0x1172 <SPI_WriteByte>
	SPI_WriteByte(0xff);
    12ea:	8f ef       	ldi	r24, 0xFF	; 255
    12ec:	0e 94 b9 08 	call	0x1172 <SPI_WriteByte>
	
	SPI_CS_Deassert();
    12f0:	dc 9a       	sbi	0x1b, 4	; 27
	SPI_WriteByte(0xff);// extra 8 CLK
    12f2:	8f ef       	ldi	r24, 0xFF	; 255
    12f4:	0e 94 b9 08 	call	0x1172 <SPI_WriteByte>

	return 0;
    12f8:	80 e0       	ldi	r24, 0x00	; 0
    12fa:	90 e0       	ldi	r25, 0x00	; 0
    12fc:	df 91       	pop	r29
    12fe:	cf 91       	pop	r28
    1300:	1f 91       	pop	r17
    1302:	0f 91       	pop	r16
    1304:	08 95       	ret

00001306 <MMC_SD_WriteSingleBlock>:
}


//写一个扇区		//wirite one sector //not used in this application
uint8 MMC_SD_WriteSingleBlock(uint32 sector, uint8* buffer)
{
    1306:	ef 92       	push	r14
    1308:	ff 92       	push	r15
    130a:	0f 93       	push	r16
    130c:	1f 93       	push	r17
    130e:	cf 93       	push	r28
    1310:	df 93       	push	r29
    1312:	dc 01       	movw	r26, r24
    1314:	cb 01       	movw	r24, r22
    1316:	8a 01       	movw	r16, r20
	uint8 r1;
	uint16 i;
	uint16 retry=0;
    1318:	ee 24       	eor	r14, r14
    131a:	ff 24       	eor	r15, r15

	r1 = MMC_SD_SendCommand(24, sector<<9);//写命令	//send command
    131c:	49 e0       	ldi	r20, 0x09	; 9
    131e:	88 0f       	add	r24, r24
    1320:	99 1f       	adc	r25, r25
    1322:	aa 1f       	adc	r26, r26
    1324:	bb 1f       	adc	r27, r27
    1326:	4a 95       	dec	r20
    1328:	d1 f7       	brne	.-12     	; 0x131e <MMC_SD_WriteSingleBlock+0x18>
    132a:	ac 01       	movw	r20, r24
    132c:	bd 01       	movw	r22, r26
    132e:	88 e1       	ldi	r24, 0x18	; 24
    1330:	0e 94 c3 08 	call	0x1186 <MMC_SD_SendCommand>
	if(r1 != 0x00)
    1334:	88 23       	and	r24, r24
    1336:	11 f0       	breq	.+4      	; 0x133c <MMC_SD_WriteSingleBlock+0x36>
		return r1;
    1338:	99 27       	eor	r25, r25
    133a:	3f c0       	rjmp	.+126    	; 0x13ba <MMC_SD_WriteSingleBlock+0xb4>

	SPI_CS_Assert();
    133c:	dc 98       	cbi	0x1b, 4	; 27
	
	SPI_WriteByte(0xff);
    133e:	8f ef       	ldi	r24, 0xFF	; 255
    1340:	0e 94 b9 08 	call	0x1172 <SPI_WriteByte>
	SPI_WriteByte(0xff);
    1344:	8f ef       	ldi	r24, 0xFF	; 255
    1346:	0e 94 b9 08 	call	0x1172 <SPI_WriteByte>
	SPI_WriteByte(0xff);
    134a:	8f ef       	ldi	r24, 0xFF	; 255
    134c:	0e 94 b9 08 	call	0x1172 <SPI_WriteByte>

	SPI_WriteByte(0xfe);//发开始符			//send start byte "token"
    1350:	8e ef       	ldi	r24, 0xFE	; 254
    1352:	0e 94 b9 08 	call	0x1172 <SPI_WriteByte>
    1356:	cf ef       	ldi	r28, 0xFF	; 255
    1358:	d1 e0       	ldi	r29, 0x01	; 1
	
	for(i=0; i<512; i++)//送512字节数据		//send 512 bytes data
	{
		SPI_WriteByte(*buffer++);
    135a:	f8 01       	movw	r30, r16
    135c:	81 91       	ld	r24, Z+
    135e:	8f 01       	movw	r16, r30
    1360:	0e 94 b9 08 	call	0x1172 <SPI_WriteByte>
    1364:	21 97       	sbiw	r28, 0x01	; 1
    1366:	d7 ff       	sbrs	r29, 7
    1368:	f8 cf       	rjmp	.-16     	; 0x135a <MMC_SD_WriteSingleBlock+0x54>
	}
	
	SPI_WriteByte(0xff);			//dummy crc
    136a:	8f ef       	ldi	r24, 0xFF	; 255
    136c:	0e 94 b9 08 	call	0x1172 <SPI_WriteByte>
	SPI_WriteByte(0xff);
    1370:	8f ef       	ldi	r24, 0xFF	; 255
    1372:	0e 94 b9 08 	call	0x1172 <SPI_WriteByte>
	
	r1 = SPI_WriteByte(0xff);
    1376:	8f ef       	ldi	r24, 0xFF	; 255
    1378:	0e 94 b9 08 	call	0x1172 <SPI_WriteByte>
	
	if( (r1&0x1f) != 0x05)//等待是否成功	//judge if it successful
    137c:	28 2f       	mov	r18, r24
    137e:	33 27       	eor	r19, r19
    1380:	c9 01       	movw	r24, r18
    1382:	8f 71       	andi	r24, 0x1F	; 31
    1384:	90 70       	andi	r25, 0x00	; 0
    1386:	05 97       	sbiw	r24, 0x05	; 5
    1388:	69 f0       	breq	.+26     	; 0x13a4 <MMC_SD_WriteSingleBlock+0x9e>
	{
		SPI_CS_Deassert();
    138a:	dc 9a       	sbi	0x1b, 4	; 27
		return r1;
    138c:	c9 01       	movw	r24, r18
    138e:	15 c0       	rjmp	.+42     	; 0x13ba <MMC_SD_WriteSingleBlock+0xb4>
	}
	//等待操作完		//wait no busy
	while(!SPI_WriteByte(0xff))if(retry++ > 0xfffe){SPI_CS_Deassert();return 1;}
    1390:	dc 9a       	sbi	0x1b, 4	; 27
    1392:	81 e0       	ldi	r24, 0x01	; 1
    1394:	90 e0       	ldi	r25, 0x00	; 0
    1396:	11 c0       	rjmp	.+34     	; 0x13ba <MMC_SD_WriteSingleBlock+0xb4>
    1398:	08 94       	sec
    139a:	e1 1c       	adc	r14, r1
    139c:	f1 1c       	adc	r15, r1
    139e:	e1 14       	cp	r14, r1
    13a0:	f1 04       	cpc	r15, r1
    13a2:	b1 f3       	breq	.-20     	; 0x1390 <MMC_SD_WriteSingleBlock+0x8a>
    13a4:	8f ef       	ldi	r24, 0xFF	; 255
    13a6:	0e 94 b9 08 	call	0x1172 <SPI_WriteByte>
    13aa:	88 23       	and	r24, r24
    13ac:	a9 f3       	breq	.-22     	; 0x1398 <MMC_SD_WriteSingleBlock+0x92>

	SPI_CS_Deassert();
    13ae:	dc 9a       	sbi	0x1b, 4	; 27
	SPI_WriteByte(0xff);// extra 8 CLK
    13b0:	8f ef       	ldi	r24, 0xFF	; 255
    13b2:	0e 94 b9 08 	call	0x1172 <SPI_WriteByte>

	return 0;
    13b6:	80 e0       	ldi	r24, 0x00	; 0
    13b8:	90 e0       	ldi	r25, 0x00	; 0
    13ba:	df 91       	pop	r29
    13bc:	cf 91       	pop	r28
    13be:	1f 91       	pop	r17
    13c0:	0f 91       	pop	r16
    13c2:	ff 90       	pop	r15
    13c4:	ef 90       	pop	r14
    13c6:	08 95       	ret

000013c8 <MMC_SD_ReadCapacity>:
}



uint32 MMC_SD_ReadCapacity()
{
    13c8:	af 92       	push	r10
    13ca:	bf 92       	push	r11
    13cc:	cf 92       	push	r12
    13ce:	df 92       	push	r13
    13d0:	ef 92       	push	r14
    13d2:	ff 92       	push	r15
    13d4:	0f 93       	push	r16
    13d6:	1f 93       	push	r17
    13d8:	cf 93       	push	r28
    13da:	df 93       	push	r29
    13dc:	cd b7       	in	r28, 0x3d	; 61
    13de:	de b7       	in	r29, 0x3e	; 62
    13e0:	60 97       	sbiw	r28, 0x10	; 16
    13e2:	0f b6       	in	r0, 0x3f	; 63
    13e4:	f8 94       	cli
    13e6:	de bf       	out	0x3e, r29	; 62
    13e8:	0f be       	out	0x3f, r0	; 63
    13ea:	cd bf       	out	0x3d, r28	; 61
	uint8 r1;
	uint16 i;
	uint16 temp;
	uint8 buffer[16];
	uint32 Capacity;
	uint16 retry =0;
    13ec:	00 e0       	ldi	r16, 0x00	; 0
    13ee:	10 e0       	ldi	r17, 0x00	; 0
	//uint8 retry=0;

	r1 = MMC_SD_SendCommand(9, 0);//写命令	//send command  //READ CSD
    13f0:	40 e0       	ldi	r20, 0x00	; 0
    13f2:	50 e0       	ldi	r21, 0x00	; 0
    13f4:	60 e0       	ldi	r22, 0x00	; 0
    13f6:	70 e0       	ldi	r23, 0x00	; 0
    13f8:	89 e0       	ldi	r24, 0x09	; 9
    13fa:	0e 94 c3 08 	call	0x1186 <MMC_SD_SendCommand>
    13fe:	68 2f       	mov	r22, r24
	if(r1 != 0x00)
    1400:	88 23       	and	r24, r24
    1402:	51 f0       	breq	.+20     	; 0x1418 <MMC_SD_ReadCapacity+0x50>
		return r1;
    1404:	77 27       	eor	r23, r23
    1406:	88 27       	eor	r24, r24
    1408:	99 27       	eor	r25, r25
    140a:	81 c0       	rjmp	.+258    	; 0x150e <MMC_SD_ReadCapacity+0x146>

	SPI_CS_Assert();
	while(SPI_WriteByte(0xff) != 0xfe)if(retry++ > 0xfffe){SPI_CS_Deassert();return 1;}
    140c:	dc 9a       	sbi	0x1b, 4	; 27
    140e:	61 e0       	ldi	r22, 0x01	; 1
    1410:	70 e0       	ldi	r23, 0x00	; 0
    1412:	80 e0       	ldi	r24, 0x00	; 0
    1414:	90 e0       	ldi	r25, 0x00	; 0
    1416:	7b c0       	rjmp	.+246    	; 0x150e <MMC_SD_ReadCapacity+0x146>
    1418:	dc 98       	cbi	0x1b, 4	; 27
    141a:	03 c0       	rjmp	.+6      	; 0x1422 <MMC_SD_ReadCapacity+0x5a>
    141c:	0f 5f       	subi	r16, 0xFF	; 255
    141e:	1f 4f       	sbci	r17, 0xFF	; 255
    1420:	a9 f3       	breq	.-22     	; 0x140c <MMC_SD_ReadCapacity+0x44>
    1422:	8f ef       	ldi	r24, 0xFF	; 255
    1424:	0e 94 b9 08 	call	0x1172 <SPI_WriteByte>
    1428:	8e 3f       	cpi	r24, 0xFE	; 254
    142a:	c1 f7       	brne	.-16     	; 0x141c <MMC_SD_ReadCapacity+0x54>

	
	for(i=0;i<16;i++)
    142c:	ee 24       	eor	r14, r14
    142e:	ff 24       	eor	r15, r15
	{
		buffer[i]=SPI_WriteByte(0xff);
    1430:	8e 01       	movw	r16, r28
    1432:	0f 5f       	subi	r16, 0xFF	; 255
    1434:	1f 4f       	sbci	r17, 0xFF	; 255
    1436:	0e 0d       	add	r16, r14
    1438:	1f 1d       	adc	r17, r15
    143a:	8f ef       	ldi	r24, 0xFF	; 255
    143c:	0e 94 b9 08 	call	0x1172 <SPI_WriteByte>
    1440:	f8 01       	movw	r30, r16
    1442:	80 83       	st	Z, r24
    1444:	08 94       	sec
    1446:	e1 1c       	adc	r14, r1
    1448:	f1 1c       	adc	r15, r1
    144a:	f0 e1       	ldi	r31, 0x10	; 16
    144c:	ef 16       	cp	r14, r31
    144e:	f1 04       	cpc	r15, r1
    1450:	78 f3       	brcs	.-34     	; 0x1430 <MMC_SD_ReadCapacity+0x68>
	}	

	SPI_WriteByte(0xff);
    1452:	8f ef       	ldi	r24, 0xFF	; 255
    1454:	0e 94 b9 08 	call	0x1172 <SPI_WriteByte>
	SPI_WriteByte(0xff);
    1458:	8f ef       	ldi	r24, 0xFF	; 255
    145a:	0e 94 b9 08 	call	0x1172 <SPI_WriteByte>
	
	SPI_WriteByte(0xff);
    145e:	8f ef       	ldi	r24, 0xFF	; 255
    1460:	0e 94 b9 08 	call	0x1172 <SPI_WriteByte>
	
	SPI_CS_Deassert();
    1464:	dc 9a       	sbi	0x1b, 4	; 27

	SPI_WriteByte(0xff);// extra 8 CLK
    1466:	8f ef       	ldi	r24, 0xFF	; 255
    1468:	0e 94 b9 08 	call	0x1172 <SPI_WriteByte>

/*********************************/
//	C_SIZE
	i = buffer[6]&0x03;
    146c:	8f 81       	ldd	r24, Y+7	; 0x07
    146e:	e8 2e       	mov	r14, r24
    1470:	ff 24       	eor	r15, r15
    1472:	83 e0       	ldi	r24, 0x03	; 3
    1474:	e8 22       	and	r14, r24
    1476:	ff 24       	eor	r15, r15
	i<<=8;
    1478:	fe 2c       	mov	r15, r14
    147a:	ee 24       	eor	r14, r14
	i += buffer[7];
    147c:	88 85       	ldd	r24, Y+8	; 0x08
    147e:	e8 0e       	add	r14, r24
    1480:	f1 1c       	adc	r15, r1
	i<<=2;
    1482:	ee 0c       	add	r14, r14
    1484:	ff 1c       	adc	r15, r15
    1486:	ee 0c       	add	r14, r14
    1488:	ff 1c       	adc	r15, r15
	i += ((buffer[8]&0xc0)>>6);
    148a:	89 85       	ldd	r24, Y+9	; 0x09
    148c:	99 27       	eor	r25, r25
    148e:	66 e0       	ldi	r22, 0x06	; 6
    1490:	96 95       	lsr	r25
    1492:	87 95       	ror	r24
    1494:	6a 95       	dec	r22
    1496:	e1 f7       	brne	.-8      	; 0x1490 <MMC_SD_ReadCapacity+0xc8>
    1498:	e8 0e       	add	r14, r24
    149a:	f9 1e       	adc	r15, r25

/**********************************/
//  C_SIZE_MULT

	r1 = buffer[9]&0x03;
    149c:	6a 85       	ldd	r22, Y+10	; 0x0a
    149e:	63 70       	andi	r22, 0x03	; 3
	r1<<=1;
    14a0:	66 0f       	add	r22, r22
	r1 += ((buffer[10]&0x80)>>7);
    14a2:	8b 85       	ldd	r24, Y+11	; 0x0b
    14a4:	99 27       	eor	r25, r25
    14a6:	88 0f       	add	r24, r24
    14a8:	89 2f       	mov	r24, r25
    14aa:	88 1f       	adc	r24, r24
    14ac:	99 0b       	sbc	r25, r25
    14ae:	91 95       	neg	r25
    14b0:	68 0f       	add	r22, r24


/**********************************/
// BLOCKNR

	r1+=2;
    14b2:	6e 5f       	subi	r22, 0xFE	; 254

	temp = 1;
    14b4:	21 e0       	ldi	r18, 0x01	; 1
    14b6:	30 e0       	ldi	r19, 0x00	; 0
	while(r1)
	{
		temp*=2;
		r1--;
    14b8:	66 23       	and	r22, r22
    14ba:	21 f0       	breq	.+8      	; 0x14c4 <MMC_SD_ReadCapacity+0xfc>
    14bc:	22 0f       	add	r18, r18
    14be:	33 1f       	adc	r19, r19
    14c0:	61 50       	subi	r22, 0x01	; 1
    14c2:	fa cf       	rjmp	.-12     	; 0x14b8 <MMC_SD_ReadCapacity+0xf0>
	}
	
	Capacity = ((uint32)(i+1))*((uint32)temp);
    14c4:	08 94       	sec
    14c6:	e1 1c       	adc	r14, r1
    14c8:	f1 1c       	adc	r15, r1
    14ca:	c7 01       	movw	r24, r14
    14cc:	aa 27       	eor	r26, r26
    14ce:	bb 27       	eor	r27, r27
    14d0:	44 27       	eor	r20, r20
    14d2:	55 27       	eor	r21, r21
    14d4:	bc 01       	movw	r22, r24
    14d6:	cd 01       	movw	r24, r26
    14d8:	0e 94 6b 15 	call	0x2ad6 <__mulsi3>
    14dc:	5b 01       	movw	r10, r22
    14de:	6c 01       	movw	r12, r24

/////////////////////////
// READ_BL_LEN

	i = buffer[5]&0x0f;
    14e0:	8e 81       	ldd	r24, Y+6	; 0x06
    14e2:	e8 2e       	mov	r14, r24
    14e4:	ff 24       	eor	r15, r15
    14e6:	ef e0       	ldi	r30, 0x0F	; 15
    14e8:	ee 22       	and	r14, r30
    14ea:	ff 24       	eor	r15, r15

/*************************/
//BLOCK_LEN

	temp = 1;
    14ec:	21 e0       	ldi	r18, 0x01	; 1
    14ee:	30 e0       	ldi	r19, 0x00	; 0
	while(i)
	{
		temp*=2;
		i--;
    14f0:	e1 14       	cp	r14, r1
    14f2:	f1 04       	cpc	r15, r1
    14f4:	31 f0       	breq	.+12     	; 0x1502 <MMC_SD_ReadCapacity+0x13a>
    14f6:	22 0f       	add	r18, r18
    14f8:	33 1f       	adc	r19, r19
    14fa:	08 94       	sec
    14fc:	e1 08       	sbc	r14, r1
    14fe:	f1 08       	sbc	r15, r1
    1500:	f7 cf       	rjmp	.-18     	; 0x14f0 <MMC_SD_ReadCapacity+0x128>
	}
/************************/


/************** formula of the capacity ******************/
//
//  memory capacity = BLOCKNR * BLOCK_LEN
//	
//	BLOCKNR = (C_SIZE + 1)* MULT
//
//           C_SIZE_MULT+2
//	MULT = 2
//
//               READ_BL_LEN
//	BLOCK_LEN = 2
/**********************************************/

//The final result
	
	Capacity *= (uint32)temp;	 
    1502:	44 27       	eor	r20, r20
    1504:	55 27       	eor	r21, r21
    1506:	c6 01       	movw	r24, r12
    1508:	b5 01       	movw	r22, r10
    150a:	0e 94 6b 15 	call	0x2ad6 <__mulsi3>
    150e:	60 96       	adiw	r28, 0x10	; 16
    1510:	0f b6       	in	r0, 0x3f	; 63
    1512:	f8 94       	cli
    1514:	de bf       	out	0x3e, r29	; 62
    1516:	0f be       	out	0x3f, r0	; 63
    1518:	cd bf       	out	0x3d, r28	; 61
    151a:	df 91       	pop	r29
    151c:	cf 91       	pop	r28
    151e:	1f 91       	pop	r17
    1520:	0f 91       	pop	r16
    1522:	ff 90       	pop	r15
    1524:	ef 90       	pop	r14
    1526:	df 90       	pop	r13
    1528:	cf 90       	pop	r12
    152a:	bf 90       	pop	r11
    152c:	af 90       	pop	r10
    152e:	08 95       	ret

00001530 <FAT_Init>:
struct FileInfoStruct FileInfo;//temporarily buffer for file information

//FAT初始化，不含SD的初始化，用之前应先调用sd的初始化
unsigned char FAT_Init()//Initialize of FAT  need initialize SD first
{
    1530:	8f 92       	push	r8
    1532:	9f 92       	push	r9
    1534:	af 92       	push	r10
    1536:	bf 92       	push	r11
    1538:	cf 92       	push	r12
    153a:	df 92       	push	r13
    153c:	ef 92       	push	r14
    153e:	ff 92       	push	r15
    1540:	0f 93       	push	r16
    1542:	1f 93       	push	r17
    1544:	cf 93       	push	r28
    1546:	df 93       	push	r29
    1548:	cd b7       	in	r28, 0x3d	; 61
    154a:	de b7       	in	r29, 0x3e	; 62
    154c:	c0 50       	subi	r28, 0x00	; 0
    154e:	d2 40       	sbci	r29, 0x02	; 2
    1550:	0f b6       	in	r0, 0x3f	; 63
    1552:	f8 94       	cli
    1554:	de bf       	out	0x3e, r29	; 62
    1556:	0f be       	out	0x3f, r0	; 63
    1558:	cd bf       	out	0x3d, r28	; 61
	struct bootsector710 *bs  = 0;
	struct bpb710        *bpb = 0;
//	struct partsector    *ps  = 0;
	struct partrecord    *pr  = 0;

	BYTE buffer[512];
	DWORD hidsec=0;
    155a:	aa 24       	eor	r10, r10
    155c:	bb 24       	eor	r11, r11
    155e:	65 01       	movw	r12, r10
	DWORD Capacity;

	Capacity = MMC_SD_ReadCapacity();
    1560:	0e 94 e4 09 	call	0x13c8 <MMC_SD_ReadCapacity>
    1564:	7b 01       	movw	r14, r22
    1566:	8c 01       	movw	r16, r24
	if(Capacity<0xff)return 1;
    1568:	8f ef       	ldi	r24, 0xFF	; 255
    156a:	e8 16       	cp	r14, r24
    156c:	f1 04       	cpc	r15, r1
    156e:	01 05       	cpc	r16, r1
    1570:	11 05       	cpc	r17, r1
    1572:	08 f4       	brcc	.+2      	; 0x1576 <FAT_Init+0x46>
    1574:	49 c0       	rjmp	.+146    	; 0x1608 <FAT_Init+0xd8>


	if(FAT_ReadSector(0,buffer))return 1;
    1576:	e0 91 18 01 	lds	r30, 0x0118
    157a:	f0 91 19 01 	lds	r31, 0x0119
    157e:	ae 01       	movw	r20, r28
    1580:	4f 5f       	subi	r20, 0xFF	; 255
    1582:	5f 4f       	sbci	r21, 0xFF	; 255
    1584:	c6 01       	movw	r24, r12
    1586:	b5 01       	movw	r22, r10
    1588:	09 95       	icall
    158a:	88 23       	and	r24, r24
    158c:	e9 f5       	brne	.+122    	; 0x1608 <FAT_Init+0xd8>
	bs = (struct bootsector710 *)buffer;		
    158e:	4e 01       	movw	r8, r28
    1590:	08 94       	sec
    1592:	81 1c       	adc	r8, r1
    1594:	91 1c       	adc	r9, r1
	pr = (struct partrecord *)((struct partsector *)buffer)->psPart;//first partition
	hidsec = pr->prStartLBA;//the hidden sectors
    1596:	fe 01       	movw	r30, r28
    1598:	e1 54       	subi	r30, 0x41	; 65
    159a:	fe 4f       	sbci	r31, 0xFE	; 254
    159c:	a0 84       	ldd	r10, Z+8	; 0x08
    159e:	b1 84       	ldd	r11, Z+9	; 0x09
    15a0:	c2 84       	ldd	r12, Z+10	; 0x0a
    15a2:	d3 84       	ldd	r13, Z+11	; 0x0b
	if(hidsec >= Capacity/512)
    15a4:	99 e0       	ldi	r25, 0x09	; 9
    15a6:	16 95       	lsr	r17
    15a8:	07 95       	ror	r16
    15aa:	f7 94       	ror	r15
    15ac:	e7 94       	ror	r14
    15ae:	9a 95       	dec	r25
    15b0:	d1 f7       	brne	.-12     	; 0x15a6 <FAT_Init+0x76>
    15b2:	ae 14       	cp	r10, r14
    15b4:	bf 04       	cpc	r11, r15
    15b6:	c0 06       	cpc	r12, r16
    15b8:	d1 06       	cpc	r13, r17
    15ba:	20 f0       	brcs	.+8      	; 0x15c4 <FAT_Init+0x94>
	{
		hidsec = 0;
    15bc:	aa 24       	eor	r10, r10
    15be:	bb 24       	eor	r11, r11
    15c0:	65 01       	movw	r12, r10
    15c2:	1c c0       	rjmp	.+56     	; 0x15fc <FAT_Init+0xcc>
	}
	else 
	{
		if(FAT_ReadSector(pr->prStartLBA,buffer))return 1;//read the bpb sector
    15c4:	e0 91 18 01 	lds	r30, 0x0118
    15c8:	f0 91 19 01 	lds	r31, 0x0119
    15cc:	a4 01       	movw	r20, r8
    15ce:	c6 01       	movw	r24, r12
    15d0:	b5 01       	movw	r22, r10
    15d2:	09 95       	icall
    15d4:	88 23       	and	r24, r24
    15d6:	c1 f4       	brne	.+48     	; 0x1608 <FAT_Init+0xd8>
		bs = (struct bootsector710 *)buffer;
		if(bs->bsJump[0]!=0xE9 && bs->bsJump[0]!=0xEB)
    15d8:	89 81       	ldd	r24, Y+1	; 0x01
    15da:	89 3e       	cpi	r24, 0xE9	; 233
    15dc:	79 f0       	breq	.+30     	; 0x15fc <FAT_Init+0xcc>
    15de:	8b 3e       	cpi	r24, 0xEB	; 235
    15e0:	69 f0       	breq	.+26     	; 0x15fc <FAT_Init+0xcc>
		{
			hidsec = 0;
    15e2:	aa 24       	eor	r10, r10
    15e4:	bb 24       	eor	r11, r11
    15e6:	65 01       	movw	r12, r10
			if(FAT_ReadSector(0,buffer))return 1;//read the bpb sector
    15e8:	e0 91 18 01 	lds	r30, 0x0118
    15ec:	f0 91 19 01 	lds	r31, 0x0119
    15f0:	a4 01       	movw	r20, r8
    15f2:	c6 01       	movw	r24, r12
    15f4:	b5 01       	movw	r22, r10
    15f6:	09 95       	icall
    15f8:	88 23       	and	r24, r24
    15fa:	31 f4       	brne	.+12     	; 0x1608 <FAT_Init+0xd8>
			bs = (struct bootsector710 *)buffer;	
		}
	}

	if(bs->bsJump[0]!=0xE9 && bs->bsJump[0]!=0xEB)//对付没有bootsect的sd卡	//dead with the card which has no bootsect
    15fc:	f4 01       	movw	r30, r8
    15fe:	80 81       	ld	r24, Z
    1600:	89 3e       	cpi	r24, 0xE9	; 233
    1602:	29 f0       	breq	.+10     	; 0x160e <FAT_Init+0xde>
    1604:	8b 3e       	cpi	r24, 0xEB	; 235
    1606:	19 f0       	breq	.+6      	; 0x160e <FAT_Init+0xde>
	{
		return 1;
    1608:	81 e0       	ldi	r24, 0x01	; 1
    160a:	90 e0       	ldi	r25, 0x00	; 0
    160c:	8d c0       	rjmp	.+282    	; 0x1728 <FAT_Init+0x1f8>
	}
	
//	GUI_sprintf_chartohex(100,20,bs->bsJump[0],0xffff,0x0000) ;  ////----------------------------------------------
///	GUI_sprintf_chartohex(100,40,bs->bsJump[1],0xffff,0x0000) ;
//	GUI_sprintf_chartohex(100,60,bs->bsJump[2],0xffff,0x0000) ;
	
	
	bpb = (struct bpb710 *)bs->bsBPB;
    160e:	f4 01       	movw	r30, r8
    1610:	3b 96       	adiw	r30, 0x0b	; 11

	
	if(bpb->bpbFATsecs)//detemine thd FAT type  //do not support FAT12
    1612:	83 85       	ldd	r24, Z+11	; 0x0b
    1614:	94 85       	ldd	r25, Z+12	; 0x0c
    1616:	89 2b       	or	r24, r25
    1618:	69 f0       	breq	.+26     	; 0x1634 <FAT_Init+0x104>
	{
		FAT32_Enable=0;	//FAT16
    161a:	10 92 47 01 	sts	0x0147, r1
		FATsectors		= bpb->bpbFATsecs;//FAT占用的扇区数	//the sectors number occupied by one fat talbe
    161e:	83 85       	ldd	r24, Z+11	; 0x0b
    1620:	94 85       	ldd	r25, Z+12	; 0x0c
    1622:	90 93 49 01 	sts	0x0149, r25
    1626:	80 93 48 01 	sts	0x0148, r24
		FirstDirClust = 2;
    162a:	82 e0       	ldi	r24, 0x02	; 2
    162c:	90 e0       	ldi	r25, 0x00	; 0
    162e:	a0 e0       	ldi	r26, 0x00	; 0
    1630:	b0 e0       	ldi	r27, 0x00	; 0
    1632:	0d c0       	rjmp	.+26     	; 0x164e <FAT_Init+0x11e>
	}
	else
	{
		FAT32_Enable=1;	//FAT32
    1634:	81 e0       	ldi	r24, 0x01	; 1
    1636:	80 93 47 01 	sts	0x0147, r24
		FATsectors		= bpb->bpbBigFATsecs;//FAT占用的扇区数	//the sectors number occupied by one fat talbe
    163a:	81 8d       	ldd	r24, Z+25	; 0x19
    163c:	92 8d       	ldd	r25, Z+26	; 0x1a
    163e:	90 93 49 01 	sts	0x0149, r25
    1642:	80 93 48 01 	sts	0x0148, r24
		FirstDirClust = bpb->bpbRootClust;
    1646:	81 a1       	ldd	r24, Z+33	; 0x21
    1648:	92 a1       	ldd	r25, Z+34	; 0x22
    164a:	a3 a1       	ldd	r26, Z+35	; 0x23
    164c:	b4 a1       	ldd	r27, Z+36	; 0x24
    164e:	80 93 50 01 	sts	0x0150, r24
    1652:	90 93 51 01 	sts	0x0151, r25
    1656:	a0 93 52 01 	sts	0x0152, r26
    165a:	b0 93 53 01 	sts	0x0153, r27
	}

	BytesPerSector	= bpb->bpbBytesPerSec;//每扇区字节数
    165e:	80 81       	ld	r24, Z
    1660:	91 81       	ldd	r25, Z+1	; 0x01
    1662:	90 93 4f 01 	sts	0x014F, r25
    1666:	80 93 4e 01 	sts	0x014E, r24
	
	
//	/I_sprintf_chartobit(10,20,BytesPerSector>>8,0xffff,0x0000) ;  //----------------------------------------------- 
 //   GUI_sprintf_chartobit(10,40,BytesPerSector,0xffff,0x0000) ; 


	SectorsPerClust	= (BYTE)bpb->bpbSecPerClust;//每簇扇区数
    166a:	82 81       	ldd	r24, Z+2	; 0x02
    166c:	99 27       	eor	r25, r25
    166e:	90 93 2f 01 	sts	0x012F, r25
    1672:	80 93 2e 01 	sts	0x012E, r24
	
//	GUI_sprintf_chartobit(10,60,SectorsPerClust,0xffff,0x0000) ;    //------------------------------------------------
	
	FirstFATSector	= bpb->bpbResSectors+hidsec;//第一个FAT表扇区
    1676:	83 81       	ldd	r24, Z+3	; 0x03
    1678:	94 81       	ldd	r25, Z+4	; 0x04
    167a:	9c 01       	movw	r18, r24
    167c:	44 27       	eor	r20, r20
    167e:	55 27       	eor	r21, r21
    1680:	2a 0d       	add	r18, r10
    1682:	3b 1d       	adc	r19, r11
    1684:	4c 1d       	adc	r20, r12
    1686:	5d 1d       	adc	r21, r13
    1688:	20 93 34 01 	sts	0x0134, r18
    168c:	30 93 35 01 	sts	0x0135, r19
    1690:	40 93 36 01 	sts	0x0136, r20
    1694:	50 93 37 01 	sts	0x0137, r21
	RootDirCount	= bpb->bpbRootDirEnts;//根目录项数
    1698:	86 81       	ldd	r24, Z+6	; 0x06
    169a:	97 81       	ldd	r25, Z+7	; 0x07
    169c:	aa 27       	eor	r26, r26
    169e:	bb 27       	eor	r27, r27
    16a0:	80 93 2a 01 	sts	0x012A, r24
    16a4:	90 93 2b 01 	sts	0x012B, r25
    16a8:	a0 93 2c 01 	sts	0x012C, r26
    16ac:	b0 93 2d 01 	sts	0x012D, r27
	RootDirSectors	= (RootDirCount*32)>>9;//根目录占用的扇区数
    16b0:	7c 01       	movw	r14, r24
    16b2:	8d 01       	movw	r16, r26
    16b4:	84 e0       	ldi	r24, 0x04	; 4
    16b6:	16 95       	lsr	r17
    16b8:	07 95       	ror	r16
    16ba:	f7 94       	ror	r15
    16bc:	e7 94       	ror	r14
    16be:	8a 95       	dec	r24
    16c0:	d1 f7       	brne	.-12     	; 0x16b6 <FAT_Init+0x186>
    16c2:	e0 92 4a 01 	sts	0x014A, r14
    16c6:	f0 92 4b 01 	sts	0x014B, r15
    16ca:	00 93 4c 01 	sts	0x014C, r16
    16ce:	10 93 4d 01 	sts	0x014D, r17
	FirstDirSector	= FirstFATSector+bpb->bpbFATs*FATsectors;//第一个目录扇区
    16d2:	85 81       	ldd	r24, Z+5	; 0x05
    16d4:	68 2f       	mov	r22, r24
    16d6:	77 27       	eor	r23, r23
    16d8:	80 91 48 01 	lds	r24, 0x0148
    16dc:	90 91 49 01 	lds	r25, 0x0149
    16e0:	68 9f       	mul	r22, r24
    16e2:	f0 01       	movw	r30, r0
    16e4:	69 9f       	mul	r22, r25
    16e6:	f0 0d       	add	r31, r0
    16e8:	78 9f       	mul	r23, r24
    16ea:	f0 0d       	add	r31, r0
    16ec:	11 24       	eor	r1, r1
    16ee:	cf 01       	movw	r24, r30
    16f0:	aa 27       	eor	r26, r26
    16f2:	bb 27       	eor	r27, r27
    16f4:	82 0f       	add	r24, r18
    16f6:	93 1f       	adc	r25, r19
    16f8:	a4 1f       	adc	r26, r20
    16fa:	b5 1f       	adc	r27, r21
    16fc:	80 93 26 01 	sts	0x0126, r24
    1700:	90 93 27 01 	sts	0x0127, r25
    1704:	a0 93 28 01 	sts	0x0128, r26
    1708:	b0 93 29 01 	sts	0x0129, r27
	FirstDataSector	= FirstDirSector+RootDirSectors;//第一个数据扇区
    170c:	8e 0d       	add	r24, r14
    170e:	9f 1d       	adc	r25, r15
    1710:	a0 1f       	adc	r26, r16
    1712:	b1 1f       	adc	r27, r17
    1714:	80 93 30 01 	sts	0x0130, r24
    1718:	90 93 31 01 	sts	0x0131, r25
    171c:	a0 93 32 01 	sts	0x0132, r26
    1720:	b0 93 33 01 	sts	0x0133, r27
	return 0;
    1724:	80 e0       	ldi	r24, 0x00	; 0
    1726:	90 e0       	ldi	r25, 0x00	; 0
    1728:	c0 50       	subi	r28, 0x00	; 0
    172a:	de 4f       	sbci	r29, 0xFE	; 254
    172c:	0f b6       	in	r0, 0x3f	; 63
    172e:	f8 94       	cli
    1730:	de bf       	out	0x3e, r29	; 62
    1732:	0f be       	out	0x3f, r0	; 63
    1734:	cd bf       	out	0x3d, r28	; 61
    1736:	df 91       	pop	r29
    1738:	cf 91       	pop	r28
    173a:	1f 91       	pop	r17
    173c:	0f 91       	pop	r16
    173e:	ff 90       	pop	r15
    1740:	ef 90       	pop	r14
    1742:	df 90       	pop	r13
    1744:	cf 90       	pop	r12
    1746:	bf 90       	pop	r11
    1748:	af 90       	pop	r10
    174a:	9f 90       	pop	r9
    174c:	8f 90       	pop	r8
    174e:	08 95       	ret

00001750 <FAT_LoadPartCluster>:
}

//读一个簇中的一个扇区
//read one sector of one cluster, parameter part indicate which sector
unsigned char FAT_LoadPartCluster(unsigned long cluster,unsigned part,BYTE * buffer)
{
    1750:	ef 92       	push	r14
    1752:	ff 92       	push	r15
    1754:	0f 93       	push	r16
    1756:	1f 93       	push	r17
    1758:	dc 01       	movw	r26, r24
    175a:	cb 01       	movw	r24, r22
    175c:	8a 01       	movw	r16, r20
    175e:	79 01       	movw	r14, r18
	DWORD sector;
	sector=FirstDataSector+(DWORD)(cluster-2)*(DWORD)SectorsPerClust;//calculate the actual sector number
    1760:	02 97       	sbiw	r24, 0x02	; 2
    1762:	a1 09       	sbc	r26, r1
    1764:	b1 09       	sbc	r27, r1
    1766:	20 91 2e 01 	lds	r18, 0x012E
    176a:	30 91 2f 01 	lds	r19, 0x012F
    176e:	44 27       	eor	r20, r20
    1770:	55 27       	eor	r21, r21
    1772:	bc 01       	movw	r22, r24
    1774:	cd 01       	movw	r24, r26
    1776:	0e 94 6b 15 	call	0x2ad6 <__mulsi3>
    177a:	9b 01       	movw	r18, r22
    177c:	ac 01       	movw	r20, r24
    177e:	80 91 30 01 	lds	r24, 0x0130
    1782:	90 91 31 01 	lds	r25, 0x0131
    1786:	a0 91 32 01 	lds	r26, 0x0132
    178a:	b0 91 33 01 	lds	r27, 0x0133
    178e:	82 0f       	add	r24, r18
    1790:	93 1f       	adc	r25, r19
    1792:	a4 1f       	adc	r26, r20
    1794:	b5 1f       	adc	r27, r21
	if(FAT_ReadSector(sector+part,buffer))return 1;
    1796:	98 01       	movw	r18, r16
    1798:	44 27       	eor	r20, r20
    179a:	55 27       	eor	r21, r21
    179c:	82 0f       	add	r24, r18
    179e:	93 1f       	adc	r25, r19
    17a0:	a4 1f       	adc	r26, r20
    17a2:	b5 1f       	adc	r27, r21
    17a4:	e0 91 18 01 	lds	r30, 0x0118
    17a8:	f0 91 19 01 	lds	r31, 0x0119
    17ac:	a7 01       	movw	r20, r14
    17ae:	bc 01       	movw	r22, r24
    17b0:	cd 01       	movw	r24, r26
    17b2:	09 95       	icall
    17b4:	88 23       	and	r24, r24
    17b6:	19 f0       	breq	.+6      	; 0x17be <FAT_LoadPartCluster+0x6e>
    17b8:	81 e0       	ldi	r24, 0x01	; 1
    17ba:	90 e0       	ldi	r25, 0x00	; 0
    17bc:	02 c0       	rjmp	.+4      	; 0x17c2 <FAT_LoadPartCluster+0x72>
	else return 0;
    17be:	80 e0       	ldi	r24, 0x00	; 0
    17c0:	90 e0       	ldi	r25, 0x00	; 0
    17c2:	1f 91       	pop	r17
    17c4:	0f 91       	pop	r16
    17c6:	ff 90       	pop	r15
    17c8:	ef 90       	pop	r14
    17ca:	08 95       	ret

000017cc <FAT_NextCluster>:
}


//读下一簇簇号
//Return the cluster number of next cluster of file
//Suitable for system which has limited RAM
unsigned long FAT_NextCluster(unsigned long cluster)
{
    17cc:	ef 92       	push	r14
    17ce:	ff 92       	push	r15
    17d0:	0f 93       	push	r16
    17d2:	1f 93       	push	r17
    17d4:	cf 93       	push	r28
    17d6:	df 93       	push	r29
    17d8:	cd b7       	in	r28, 0x3d	; 61
    17da:	de b7       	in	r29, 0x3e	; 62
    17dc:	c0 50       	subi	r28, 0x00	; 0
    17de:	d2 40       	sbci	r29, 0x02	; 2
    17e0:	0f b6       	in	r0, 0x3f	; 63
    17e2:	f8 94       	cli
    17e4:	de bf       	out	0x3e, r29	; 62
    17e6:	0f be       	out	0x3f, r0	; 63
    17e8:	cd bf       	out	0x3d, r28	; 61
    17ea:	7b 01       	movw	r14, r22
    17ec:	8c 01       	movw	r16, r24
	BYTE buffer[512];
	DWORD sector;
	DWORD offset;
	if(FAT32_Enable)offset = cluster/128;
    17ee:	80 91 47 01 	lds	r24, 0x0147
    17f2:	88 23       	and	r24, r24
    17f4:	51 f0       	breq	.+20     	; 0x180a <FAT_NextCluster+0x3e>
    17f6:	a8 01       	movw	r20, r16
    17f8:	97 01       	movw	r18, r14
    17fa:	67 e0       	ldi	r22, 0x07	; 7
    17fc:	56 95       	lsr	r21
    17fe:	47 95       	ror	r20
    1800:	37 95       	ror	r19
    1802:	27 95       	ror	r18
    1804:	6a 95       	dec	r22
    1806:	d1 f7       	brne	.-12     	; 0x17fc <FAT_NextCluster+0x30>
    1808:	04 c0       	rjmp	.+8      	; 0x1812 <FAT_NextCluster+0x46>
	else offset = cluster/256;
    180a:	55 27       	eor	r21, r21
    180c:	41 2f       	mov	r20, r17
    180e:	30 2f       	mov	r19, r16
    1810:	2f 2d       	mov	r18, r15
	if(cluster<2)return 0x0ffffff8;
    1812:	82 e0       	ldi	r24, 0x02	; 2
    1814:	e8 16       	cp	r14, r24
    1816:	f1 04       	cpc	r15, r1
    1818:	01 05       	cpc	r16, r1
    181a:	11 05       	cpc	r17, r1
    181c:	c0 f0       	brcs	.+48     	; 0x184e <FAT_NextCluster+0x82>
	sector=FirstFATSector+offset;//calculate the actual sector
    181e:	80 91 34 01 	lds	r24, 0x0134
    1822:	90 91 35 01 	lds	r25, 0x0135
    1826:	a0 91 36 01 	lds	r26, 0x0136
    182a:	b0 91 37 01 	lds	r27, 0x0137
    182e:	82 0f       	add	r24, r18
    1830:	93 1f       	adc	r25, r19
    1832:	a4 1f       	adc	r26, r20
    1834:	b5 1f       	adc	r27, r21
	if(FAT_ReadSector(sector,buffer))return 0x0ffffff8;//read fat table / return 0xfff8 when error occured
    1836:	e0 91 18 01 	lds	r30, 0x0118
    183a:	f0 91 19 01 	lds	r31, 0x0119
    183e:	ae 01       	movw	r20, r28
    1840:	4f 5f       	subi	r20, 0xFF	; 255
    1842:	5f 4f       	sbci	r21, 0xFF	; 255
    1844:	bc 01       	movw	r22, r24
    1846:	cd 01       	movw	r24, r26
    1848:	09 95       	icall
    184a:	88 23       	and	r24, r24
    184c:	29 f0       	breq	.+10     	; 0x1858 <FAT_NextCluster+0x8c>
    184e:	68 ef       	ldi	r22, 0xF8	; 248
    1850:	7f ef       	ldi	r23, 0xFF	; 255
    1852:	8f ef       	ldi	r24, 0xFF	; 255
    1854:	9f e0       	ldi	r25, 0x0F	; 15
    1856:	2f c0       	rjmp	.+94     	; 0x18b6 <FAT_NextCluster+0xea>

	if(FAT32_Enable)
    1858:	80 91 47 01 	lds	r24, 0x0147
    185c:	9e 01       	movw	r18, r28
    185e:	2f 5f       	subi	r18, 0xFF	; 255
    1860:	3f 4f       	sbci	r19, 0xFF	; 255
    1862:	88 23       	and	r24, r24
    1864:	a1 f0       	breq	.+40     	; 0x188e <FAT_NextCluster+0xc2>
	{
		offset=cluster%128;//find the position
    1866:	8f e7       	ldi	r24, 0x7F	; 127
    1868:	90 e0       	ldi	r25, 0x00	; 0
    186a:	a0 e0       	ldi	r26, 0x00	; 0
    186c:	b0 e0       	ldi	r27, 0x00	; 0
    186e:	e8 22       	and	r14, r24
    1870:	f9 22       	and	r15, r25
    1872:	0a 23       	and	r16, r26
    1874:	1b 23       	and	r17, r27
		sector=((unsigned long *)buffer)[offset];	
    1876:	f7 01       	movw	r30, r14
    1878:	ee 0f       	add	r30, r30
    187a:	ff 1f       	adc	r31, r31
    187c:	ee 0f       	add	r30, r30
    187e:	ff 1f       	adc	r31, r31
    1880:	e2 0f       	add	r30, r18
    1882:	f3 1f       	adc	r31, r19
    1884:	60 81       	ld	r22, Z
    1886:	71 81       	ldd	r23, Z+1	; 0x01
    1888:	82 81       	ldd	r24, Z+2	; 0x02
    188a:	93 81       	ldd	r25, Z+3	; 0x03
    188c:	14 c0       	rjmp	.+40     	; 0x18b6 <FAT_NextCluster+0xea>
	}
	else
	{
		offset=cluster%256;//find the position
    188e:	8f ef       	ldi	r24, 0xFF	; 255
    1890:	90 e0       	ldi	r25, 0x00	; 0
    1892:	a0 e0       	ldi	r26, 0x00	; 0
    1894:	b0 e0       	ldi	r27, 0x00	; 0
    1896:	e8 22       	and	r14, r24
    1898:	f9 22       	and	r15, r25
    189a:	0a 23       	and	r16, r26
    189c:	1b 23       	and	r17, r27
		sector=((unsigned int *)buffer)[offset];
    189e:	f7 01       	movw	r30, r14
    18a0:	ee 0d       	add	r30, r14
    18a2:	ff 1d       	adc	r31, r15
    18a4:	e2 0f       	add	r30, r18
    18a6:	f3 1f       	adc	r31, r19
    18a8:	80 81       	ld	r24, Z
    18aa:	91 81       	ldd	r25, Z+1	; 0x01
    18ac:	9c 01       	movw	r18, r24
    18ae:	44 27       	eor	r20, r20
    18b0:	55 27       	eor	r21, r21
    18b2:	ca 01       	movw	r24, r20
    18b4:	b9 01       	movw	r22, r18
    18b6:	c0 50       	subi	r28, 0x00	; 0
    18b8:	de 4f       	sbci	r29, 0xFE	; 254
    18ba:	0f b6       	in	r0, 0x3f	; 63
    18bc:	f8 94       	cli
    18be:	de bf       	out	0x3e, r29	; 62
    18c0:	0f be       	out	0x3f, r0	; 63
    18c2:	cd bf       	out	0x3d, r28	; 61
    18c4:	df 91       	pop	r29
    18c6:	cf 91       	pop	r28
    18c8:	1f 91       	pop	r17
    18ca:	0f 91       	pop	r16
    18cc:	ff 90       	pop	r15
    18ce:	ef 90       	pop	r14
    18d0:	08 95       	ret

000018d2 <CopyDirentruyItem>:
	}
	return (unsigned long)sector;//return the cluste number
}

#if FIX_DIRECTORY
//在给定目录下查找文件
//Find a item in the directory which specify by the parameter "cluster"
//Return the start cluster number
unsigned int FAT_FindItem(unsigned long cluster, BYTE *name, struct FileInfoStruct *FileInfo)
{
	BYTE *buffer;
	DWORD tempclust;
	DWORD sector;
	unsigned char cnt;
	unsigned int offset;
	unsigned char i;
	struct direntry *item = 0;
	if((cluster==0) && (FAT32_Enable == 0))// root directory
	{
		buffer=malloc(512);//apply memory
		if(buffer==0)return 1;//if failed
		for(cnt=0;cnt<RootDirSectors;cnt++)
		{
			if(FAT_ReadSector(FirstDirSector+cnt,buffer)){free(buffer);return 1;}
			for(offset=0;offset<512;offset+=32)
			{
				item=(struct direntry *)(&buffer[offset]);
				if((item->deName[0] != 0x00) && (item->deName[0] != 0xe5) && (item->deAttributes != 0x0f))
				{
					for(i=0;i<11;i++)
					{
						if(buffer[offset+i]!=name[i])break;
					}
					if(i==11)
					{
						//return the parameter of the item
						FileInfo->StartCluster = item->deStartCluster + (((unsigned long)item->deHighClust)<<16);//don't care
						FileInfo->Size         = item->deFileSize;
						FileInfo->Attr         = item->deAttributes;
						FileInfo->Sector       = FirstDirSector+cnt;
						FileInfo->Offset       = offset;
						free(buffer);
						return 0;
					}
				}
			}
		}
		free(buffer);//release
	}
	else//other folders
	{
		tempclust=cluster;
		while(1)
		{
			sector=FirstDataSector+(DWORD)(tempclust-2)*(DWORD)SectorsPerClust;//calculate the actual sector number
			buffer=malloc(512);//apply memory
			if(buffer==0)return 1;//if failed
			for(cnt=0;cnt<SectorsPerClust;cnt++)
			{
				if(FAT_ReadSector(sector+cnt,buffer)){free(buffer);return 1;}
				for(offset=0;offset<512;offset+=32)
				{
					item=(struct direntry *)(&buffer[offset]);
					if((item->deName[0] != 0x00) && (item->deName[0] != 0xe5) && (item->deAttributes != 0x0f))
					{
						for(i=0;i<11;i++)
						{
							if(buffer[offset+i]!=name[i])break;
						}
						if(i==11)
						{
							FileInfo->StartCluster = item->deStartCluster + (((unsigned long)item->deHighClust)<<16);//don't care
							FileInfo->Size         = item->deFileSize;
							FileInfo->Attr         = item->deAttributes;
							FileInfo->Sector       = sector+cnt;
							FileInfo->Offset       = offset;
							free(buffer);
							return 0;
						}
					}
				}
			}
			free(buffer);//release
			tempclust=FAT_NextCluster(tempclust);//next cluster
			if(tempclust == 0x0fffffff || tempclust == 0x0ffffff8 || (FAT32_Enable == 0 && tempclust == 0xffff))break;
		}
	}
	return 1;
}

// find a directory with the given path
unsigned long FAT_OpenDir(BYTE * dir)
{
	BYTE name[11];
	BYTE *p=dir;
	BYTE deep=0;
	BYTE i,j;
	DWORD cluster=0;
	if(FAT32_Enable)cluster = FirstDirClust;
	if(*p != '\\')return 1;//invalid path
	while(*p)
	{
		if(*p == '\\')
		{
			deep++;
		}
		p++;
	}
	p=dir;
	for(i=0;i<deep-1;i++)
	{
		p++;
		for(j=0;j<11;j++)name[j]=0x20;
		j=0;
		while(*p != '\\')
		{
			if((*p) >= 'a' && (*p) <= 'z')name[j] = (*p++)-0x20;
			else name[j] = *p++;
			j++;
		}
		if(FAT_FindItem(cluster,name, &FileInfo))return 1;//find the directory
		cluster = FileInfo.StartCluster;
	}
	p++;
	for(j=0;j<11;j++)name[j]=0x20;
	j=0;
	while(*p)
	{
		if(*p>='a' && *p<='z')name[j]=(*p++)-0x20;
		else name[j]=*p++;
		j++;
	}
	if(j == 0)return cluster;
	if(FAT_FindItem(cluster,name, &FileInfo))return 1;//find the final directory
	cluster = FileInfo.StartCluster;
	return cluster;
}
#endif

//复制记录项信息  //copy item
void CopyDirentruyItem(struct direntry *Desti,struct direntry *Source)
{
    18d2:	cf 93       	push	r28
    18d4:	df 93       	push	r29
    18d6:	ec 01       	movw	r28, r24
    18d8:	fb 01       	movw	r30, r22
    18da:	9c 01       	movw	r18, r24
    18dc:	ab 01       	movw	r20, r22
    18de:	97 e0       	ldi	r25, 0x07	; 7
	BYTE i;
	for(i=0;i<8;i++)Desti->deName[i] = Source->deName[i];
    18e0:	da 01       	movw	r26, r20
    18e2:	8d 91       	ld	r24, X+
    18e4:	ad 01       	movw	r20, r26
    18e6:	d9 01       	movw	r26, r18
    18e8:	8d 93       	st	X+, r24
    18ea:	9d 01       	movw	r18, r26
    18ec:	91 50       	subi	r25, 0x01	; 1
    18ee:	97 ff       	sbrs	r25, 7
    18f0:	f7 cf       	rjmp	.-18     	; 0x18e0 <CopyDirentruyItem+0xe>
    18f2:	9e 01       	movw	r18, r28
    18f4:	28 5f       	subi	r18, 0xF8	; 248
    18f6:	3f 4f       	sbci	r19, 0xFF	; 255
    18f8:	af 01       	movw	r20, r30
    18fa:	48 5f       	subi	r20, 0xF8	; 248
    18fc:	5f 4f       	sbci	r21, 0xFF	; 255
    18fe:	92 e0       	ldi	r25, 0x02	; 2
	for(i=0;i<3;i++)Desti->deExtension[i] = Source->deExtension[i];
    1900:	da 01       	movw	r26, r20
    1902:	8d 91       	ld	r24, X+
    1904:	ad 01       	movw	r20, r26
    1906:	d9 01       	movw	r26, r18
    1908:	8d 93       	st	X+, r24
    190a:	9d 01       	movw	r18, r26
    190c:	91 50       	subi	r25, 0x01	; 1
    190e:	97 ff       	sbrs	r25, 7
    1910:	f7 cf       	rjmp	.-18     	; 0x1900 <CopyDirentruyItem+0x2e>
	Desti->deAttributes = Source->deAttributes;
    1912:	83 85       	ldd	r24, Z+11	; 0x0b
    1914:	8b 87       	std	Y+11, r24	; 0x0b
	Desti->deLowerCase = Source->deLowerCase;
    1916:	84 85       	ldd	r24, Z+12	; 0x0c
    1918:	8c 87       	std	Y+12, r24	; 0x0c
	Desti->deCHundredth = Source->deCHundredth;
    191a:	85 85       	ldd	r24, Z+13	; 0x0d
    191c:	8d 87       	std	Y+13, r24	; 0x0d
    191e:	9e 01       	movw	r18, r28
    1920:	22 5f       	subi	r18, 0xF2	; 242
    1922:	3f 4f       	sbci	r19, 0xFF	; 255
    1924:	af 01       	movw	r20, r30
    1926:	42 5f       	subi	r20, 0xF2	; 242
    1928:	5f 4f       	sbci	r21, 0xFF	; 255
    192a:	91 e0       	ldi	r25, 0x01	; 1
	for(i=0;i<2;i++)Desti->deCTime[i] = Source->deCTime[i];
    192c:	da 01       	movw	r26, r20
    192e:	8d 91       	ld	r24, X+
    1930:	ad 01       	movw	r20, r26
    1932:	d9 01       	movw	r26, r18
    1934:	8d 93       	st	X+, r24
    1936:	9d 01       	movw	r18, r26
    1938:	91 50       	subi	r25, 0x01	; 1
    193a:	97 ff       	sbrs	r25, 7
    193c:	f7 cf       	rjmp	.-18     	; 0x192c <CopyDirentruyItem+0x5a>
    193e:	9e 01       	movw	r18, r28
    1940:	20 5f       	subi	r18, 0xF0	; 240
    1942:	3f 4f       	sbci	r19, 0xFF	; 255
    1944:	af 01       	movw	r20, r30
    1946:	40 5f       	subi	r20, 0xF0	; 240
    1948:	5f 4f       	sbci	r21, 0xFF	; 255
    194a:	91 e0       	ldi	r25, 0x01	; 1
	for(i=0;i<2;i++)Desti->deCDate[i] = Source->deCDate[i];
    194c:	da 01       	movw	r26, r20
    194e:	8d 91       	ld	r24, X+
    1950:	ad 01       	movw	r20, r26
    1952:	d9 01       	movw	r26, r18
    1954:	8d 93       	st	X+, r24
    1956:	9d 01       	movw	r18, r26
    1958:	91 50       	subi	r25, 0x01	; 1
    195a:	97 ff       	sbrs	r25, 7
    195c:	f7 cf       	rjmp	.-18     	; 0x194c <CopyDirentruyItem+0x7a>
    195e:	9e 01       	movw	r18, r28
    1960:	2e 5e       	subi	r18, 0xEE	; 238
    1962:	3f 4f       	sbci	r19, 0xFF	; 255
    1964:	af 01       	movw	r20, r30
    1966:	4e 5e       	subi	r20, 0xEE	; 238
    1968:	5f 4f       	sbci	r21, 0xFF	; 255
    196a:	91 e0       	ldi	r25, 0x01	; 1
	for(i=0;i<2;i++)Desti->deADate[i] = Source->deADate[i];
    196c:	da 01       	movw	r26, r20
    196e:	8d 91       	ld	r24, X+
    1970:	ad 01       	movw	r20, r26
    1972:	d9 01       	movw	r26, r18
    1974:	8d 93       	st	X+, r24
    1976:	9d 01       	movw	r18, r26
    1978:	91 50       	subi	r25, 0x01	; 1
    197a:	97 ff       	sbrs	r25, 7
    197c:	f7 cf       	rjmp	.-18     	; 0x196c <CopyDirentruyItem+0x9a>
	Desti->deHighClust = Source->deHighClust;
    197e:	84 89       	ldd	r24, Z+20	; 0x14
    1980:	95 89       	ldd	r25, Z+21	; 0x15
    1982:	9d 8b       	std	Y+21, r25	; 0x15
    1984:	8c 8b       	std	Y+20, r24	; 0x14
    1986:	9e 01       	movw	r18, r28
    1988:	2a 5e       	subi	r18, 0xEA	; 234
    198a:	3f 4f       	sbci	r19, 0xFF	; 255
    198c:	af 01       	movw	r20, r30
    198e:	4a 5e       	subi	r20, 0xEA	; 234
    1990:	5f 4f       	sbci	r21, 0xFF	; 255
    1992:	91 e0       	ldi	r25, 0x01	; 1
	for(i=0;i<2;i++)Desti->deMTime[i] = Source->deMTime[i];
    1994:	da 01       	movw	r26, r20
    1996:	8d 91       	ld	r24, X+
    1998:	ad 01       	movw	r20, r26
    199a:	d9 01       	movw	r26, r18
    199c:	8d 93       	st	X+, r24
    199e:	9d 01       	movw	r18, r26
    19a0:	91 50       	subi	r25, 0x01	; 1
    19a2:	97 ff       	sbrs	r25, 7
    19a4:	f7 cf       	rjmp	.-18     	; 0x1994 <CopyDirentruyItem+0xc2>
    19a6:	9e 01       	movw	r18, r28
    19a8:	28 5e       	subi	r18, 0xE8	; 232
    19aa:	3f 4f       	sbci	r19, 0xFF	; 255
    19ac:	af 01       	movw	r20, r30
    19ae:	48 5e       	subi	r20, 0xE8	; 232
    19b0:	5f 4f       	sbci	r21, 0xFF	; 255
    19b2:	91 e0       	ldi	r25, 0x01	; 1
	for(i=0;i<2;i++)Desti->deMDate[i] = Source->deMDate[i];
    19b4:	da 01       	movw	r26, r20
    19b6:	8d 91       	ld	r24, X+
    19b8:	ad 01       	movw	r20, r26
    19ba:	d9 01       	movw	r26, r18
    19bc:	8d 93       	st	X+, r24
    19be:	9d 01       	movw	r18, r26
    19c0:	91 50       	subi	r25, 0x01	; 1
    19c2:	97 ff       	sbrs	r25, 7
    19c4:	f7 cf       	rjmp	.-18     	; 0x19b4 <CopyDirentruyItem+0xe2>
	Desti->deStartCluster = Source->deStartCluster;
    19c6:	82 8d       	ldd	r24, Z+26	; 0x1a
    19c8:	93 8d       	ldd	r25, Z+27	; 0x1b
    19ca:	9b 8f       	std	Y+27, r25	; 0x1b
    19cc:	8a 8f       	std	Y+26, r24	; 0x1a
	Desti->deFileSize = Source->deFileSize;
    19ce:	84 8d       	ldd	r24, Z+28	; 0x1c
    19d0:	95 8d       	ldd	r25, Z+29	; 0x1d
    19d2:	a6 8d       	ldd	r26, Z+30	; 0x1e
    19d4:	b7 8d       	ldd	r27, Z+31	; 0x1f
    19d6:	8c 8f       	std	Y+28, r24	; 0x1c
    19d8:	9d 8f       	std	Y+29, r25	; 0x1d
    19da:	ae 8f       	std	Y+30, r26	; 0x1e
    19dc:	bf 8f       	std	Y+31, r27	; 0x1f
    19de:	df 91       	pop	r29
    19e0:	cf 91       	pop	r28
    19e2:	08 95       	ret

000019e4 <WriteFolderCluster>:
}

#if FIX_DIRECTORY

//search the file , when *count = 0 it will bring the number whole songs, when *cout != 0 the *MusicInfo will bring the infomation of the file
BYTE Search(BYTE *dir,struct direntry *MusicInfo,WORD *Count,BYTE *type)//当COUNT为零时，有它带回这个目录下总共有多少首音乐
{                                                            //不为零时有MusicInfo带回第Count首歌的详细文件信息
	BYTE *buffer;
	//BYTE buff[3];
	DWORD sector;
	DWORD cluster;
	DWORD tempclust;
	unsigned char cnt;
	unsigned int offset;
	unsigned int i=0;
	struct direntry *item = 0;
	cluster = FAT_OpenDir(dir);
	if(cluster == 1)return 1;
	if(cluster==0 && FAT32_Enable==0)// root directory
	{
		buffer=malloc(512);//apply memory
		if(buffer==0)return 1;//if failed
		for(cnt=0;cnt<RootDirSectors;cnt++)
		{
			if(FAT_ReadSector(FirstDirSector+cnt,buffer)){free(buffer);return 1;}
			for(offset=0;offset<512;offset+=32)
			{
				item=(struct direntry *)(&buffer[offset]);//pointer convert
				//find a valid item and display it
				if((item->deName[0] != '.') && (item->deName[0] != 0x00) && (item->deName[0] != 0xe5) && (item->deAttributes != 0x0f))
				{
					if((item->deExtension[0] == 'b')&&(item->deExtension[1] == 'm')&&(item->deExtension[2] == 'p'))
					{
						CopyDirentruyItem(MusicInfo,item);
						*type=1;
						i++;
						if(i==*Count){free(buffer);return 0;}	
					}
				}
			}
		}
		free(buffer);//release
	}
	else//other folders
	{
		tempclust=cluster;
		while(1)
		{
			sector=FirstDataSector+(DWORD)(tempclust-2)*(DWORD)SectorsPerClust;//calculate the actual sector number
			buffer=malloc(512);//apply memory
			if(buffer==0)return 1;//if failed
			for(cnt=0;cnt<SectorsPerClust;cnt++)
			{
				if(FAT_ReadSector(sector+cnt,buffer)){free(buffer);return 1;}
				for(offset=0;offset<512;offset+=32)
				{
					item=(struct direntry *)(&buffer[offset]);
					if((item->deName[0] != '.') && (item->deName[0] != 0x00) && (item->deName[0] != 0xe5) && (item->deAttributes != 0x0f))
					{
						if((item->deExtension[0] == 'b')&&(item->deExtension[1] == 'm')&&(item->deExtension[2] == 'p'))
						{
							CopyDirentruyItem(MusicInfo,item);
							*type=1;
							i++;
							if(i==*Count){free(buffer);return 0;}	
						}	
					}
				}
			}
			free(buffer);//release
			tempclust=FAT_NextCluster(tempclust);//next cluster
			if(tempclust == 0x0fffffff || tempclust == 0x0ffffff8 || (FAT32_Enable == 0 && tempclust == 0xffff))break;
		}
	}
	if(*Count==0)*Count=i;
	return 0;	
}

#else

void WriteFolderCluster(WORD addr,DWORD cluster)
{
    19e4:	ef 92       	push	r14
    19e6:	ff 92       	push	r15
    19e8:	0f 93       	push	r16
    19ea:	1f 93       	push	r17
    19ec:	fc 01       	movw	r30, r24
    Write a byte \c value to EEPROM address \c addr. */

void 
eeprom_write_byte (uint8_t *addr,uint8_t value)
{
    19ee:	87 2f       	mov	r24, r23
    19f0:	99 27       	eor	r25, r25
    19f2:	aa 27       	eor	r26, r26
    19f4:	bb 27       	eor	r27, r27
  asm volatile (
    19f6:	df 01       	movw	r26, r30
    19f8:	08 2e       	mov	r0, r24
    19fa:	0e 94 92 15 	call	0x2b24 <__eeprom_write_byte_1C1D1E>
    19fe:	9f 01       	movw	r18, r30
    1a00:	2f 5f       	subi	r18, 0xFF	; 255
    1a02:	3f 4f       	sbci	r19, 0xFF	; 255
    1a04:	7b 01       	movw	r14, r22
    1a06:	00 27       	eor	r16, r16
    1a08:	11 27       	eor	r17, r17
    1a0a:	d9 01       	movw	r26, r18
    1a0c:	0e 2c       	mov	r0, r14
    1a0e:	0e 94 92 15 	call	0x2b24 <__eeprom_write_byte_1C1D1E>
    1a12:	9f 01       	movw	r18, r30
    1a14:	2e 5f       	subi	r18, 0xFE	; 254
    1a16:	3f 4f       	sbci	r19, 0xFF	; 255
    1a18:	e5 2e       	mov	r14, r21
    1a1a:	f6 2e       	mov	r15, r22
    1a1c:	07 2f       	mov	r16, r23
    1a1e:	11 27       	eor	r17, r17
    1a20:	d9 01       	movw	r26, r18
    1a22:	0e 2c       	mov	r0, r14
    1a24:	0e 94 92 15 	call	0x2b24 <__eeprom_write_byte_1C1D1E>
    1a28:	df 01       	movw	r26, r30
    1a2a:	13 96       	adiw	r26, 0x03	; 3
    1a2c:	04 2e       	mov	r0, r20
    1a2e:	0e 94 92 15 	call	0x2b24 <__eeprom_write_byte_1C1D1E>
    1a32:	1f 91       	pop	r17
    1a34:	0f 91       	pop	r16
    1a36:	ff 90       	pop	r15
    1a38:	ef 90       	pop	r14
    1a3a:	08 95       	ret

00001a3c <GetFolderCluster>:
    1a3c:	dc 01       	movw	r26, r24
    1a3e:	0e 94 8a 15 	call	0x2b14 <__eeprom_read_byte_1C1D1E>
    1a42:	20 2d       	mov	r18, r0
    1a44:	33 27       	eor	r19, r19
    1a46:	44 27       	eor	r20, r20
    1a48:	55 27       	eor	r21, r21
#if FAT_DEBUG
	printf_P(PSTR("\r\nWrite EEPROM address:%d with value:%ld"),addr,cluster);
#endif
	eeprom_write_byte(addr,cluster>>24);
	eeprom_write_byte(addr+1,cluster>>16);
	eeprom_write_byte(addr+2,cluster>>8);
	eeprom_write_byte(addr+3,cluster>>0);
}

DWORD GetFolderCluster(WORD addr)
{
	DWORD temp;
	temp = eeprom_read_byte(addr);
	temp <<= 8;
    1a4a:	54 2f       	mov	r21, r20
    1a4c:	43 2f       	mov	r20, r19
    1a4e:	32 2f       	mov	r19, r18
    1a50:	22 27       	eor	r18, r18
    Read one byte from EEPROM address \c addr. */

uint8_t 
eeprom_read_byte (const uint8_t *addr) 
{
    1a52:	dc 01       	movw	r26, r24
    1a54:	11 96       	adiw	r26, 0x01	; 1
  uint8_t result;
  asm volatile
    1a56:	0e 94 8a 15 	call	0x2b14 <__eeprom_read_byte_1C1D1E>
    1a5a:	60 2d       	mov	r22, r0
    1a5c:	26 0f       	add	r18, r22
    1a5e:	31 1d       	adc	r19, r1
    1a60:	41 1d       	adc	r20, r1
    1a62:	51 1d       	adc	r21, r1
	temp += eeprom_read_byte(addr+1);
	temp <<= 8;
    1a64:	54 2f       	mov	r21, r20
    1a66:	43 2f       	mov	r20, r19
    1a68:	32 2f       	mov	r19, r18
    1a6a:	22 27       	eor	r18, r18
    Read one byte from EEPROM address \c addr. */

uint8_t 
eeprom_read_byte (const uint8_t *addr) 
{
    1a6c:	dc 01       	movw	r26, r24
    1a6e:	12 96       	adiw	r26, 0x02	; 2
  uint8_t result;
  asm volatile
    1a70:	0e 94 8a 15 	call	0x2b14 <__eeprom_read_byte_1C1D1E>
    1a74:	60 2d       	mov	r22, r0
    1a76:	26 0f       	add	r18, r22
    1a78:	31 1d       	adc	r19, r1
    1a7a:	41 1d       	adc	r20, r1
    1a7c:	51 1d       	adc	r21, r1
	temp += eeprom_read_byte(addr+2);
	temp <<= 8;
    1a7e:	54 2f       	mov	r21, r20
    1a80:	43 2f       	mov	r20, r19
    1a82:	32 2f       	mov	r19, r18
    1a84:	22 27       	eor	r18, r18
    Read one byte from EEPROM address \c addr. */

uint8_t 
eeprom_read_byte (const uint8_t *addr) 
{
    1a86:	dc 01       	movw	r26, r24
    1a88:	13 96       	adiw	r26, 0x03	; 3
  uint8_t result;
  asm volatile
    1a8a:	0e 94 8a 15 	call	0x2b14 <__eeprom_read_byte_1C1D1E>
    1a8e:	80 2d       	mov	r24, r0
    1a90:	28 0f       	add	r18, r24
    1a92:	31 1d       	adc	r19, r1
    1a94:	41 1d       	adc	r20, r1
    1a96:	51 1d       	adc	r21, r1
	temp += eeprom_read_byte(addr+3);
#if FAT_DEBUG
	printf_P(PSTR("\r\nRead EEPROM address: %d value is: %ld"),addr,temp);
#endif
	return temp;
}
    1a98:	ca 01       	movw	r24, r20
    1a9a:	b9 01       	movw	r22, r18
    1a9c:	08 95       	ret

00001a9e <SearchFolder>:

BYTE SearchFolder(DWORD cluster,WORD *addr)
{
    1a9e:	3f 92       	push	r3
    1aa0:	4f 92       	push	r4
    1aa2:	5f 92       	push	r5
    1aa4:	6f 92       	push	r6
    1aa6:	7f 92       	push	r7
    1aa8:	8f 92       	push	r8
    1aaa:	9f 92       	push	r9
    1aac:	af 92       	push	r10
    1aae:	bf 92       	push	r11
    1ab0:	cf 92       	push	r12
    1ab2:	df 92       	push	r13
    1ab4:	ef 92       	push	r14
    1ab6:	ff 92       	push	r15
    1ab8:	0f 93       	push	r16
    1aba:	1f 93       	push	r17
    1abc:	cf 93       	push	r28
    1abe:	df 93       	push	r29
    1ac0:	7b 01       	movw	r14, r22
    1ac2:	8c 01       	movw	r16, r24
    1ac4:	2a 01       	movw	r4, r20
	BYTE *buffer;
	//BYTE buff[3];
	DWORD sector;
	//DWORD cluster;
	DWORD tempclust;
	unsigned char cnt;
	unsigned int offset;
	//unsigned int i=0;
	//unsigned char j;//long name buffer offset;
//	unsigned char *p;//long name buffer pointer
	struct direntry *item = 0;
	//struct winentry *we =0;
	
	if(cluster==0 && FAT32_Enable==0)// root directory
    1ac6:	61 15       	cp	r22, r1
    1ac8:	71 05       	cpc	r23, r1
    1aca:	81 05       	cpc	r24, r1
    1acc:	91 05       	cpc	r25, r1
    1ace:	09 f0       	breq	.+2      	; 0x1ad2 <SearchFolder+0x34>
    1ad0:	8b c0       	rjmp	.+278    	; 0x1be8 <SearchFolder+0x14a>
    1ad2:	d0 90 47 01 	lds	r13, 0x0147
    1ad6:	dd 20       	and	r13, r13
    1ad8:	09 f0       	breq	.+2      	; 0x1adc <SearchFolder+0x3e>
    1ada:	86 c0       	rjmp	.+268    	; 0x1be8 <SearchFolder+0x14a>
	{
		buffer=malloc(512);//apply memory
    1adc:	80 e0       	ldi	r24, 0x00	; 0
    1ade:	92 e0       	ldi	r25, 0x02	; 2
    1ae0:	0e 94 75 14 	call	0x28ea <malloc>
    1ae4:	ec 01       	movw	r28, r24
		if(buffer==0)return 1;//if failed
    1ae6:	89 2b       	or	r24, r25
    1ae8:	09 f4       	brne	.+2      	; 0x1aec <SearchFolder+0x4e>
    1aea:	7b c0       	rjmp	.+246    	; 0x1be2 <SearchFolder+0x144>
		for(cnt=0;cnt<RootDirSectors;cnt++)
    1aec:	3d 2c       	mov	r3, r13
    1aee:	80 91 4a 01 	lds	r24, 0x014A
    1af2:	90 91 4b 01 	lds	r25, 0x014B
    1af6:	a0 91 4c 01 	lds	r26, 0x014C
    1afa:	b0 91 4d 01 	lds	r27, 0x014D
    1afe:	e8 16       	cp	r14, r24
    1b00:	f9 06       	cpc	r15, r25
    1b02:	0a 07       	cpc	r16, r26
    1b04:	1b 07       	cpc	r17, r27
    1b06:	08 f0       	brcs	.+2      	; 0x1b0a <SearchFolder+0x6c>
    1b08:	65 c0       	rjmp	.+202    	; 0x1bd4 <SearchFolder+0x136>
		{
			if(FAT_ReadSector(FirstDirSector+cnt,buffer)){free(buffer);return 1;}
    1b0a:	80 91 26 01 	lds	r24, 0x0126
    1b0e:	90 91 27 01 	lds	r25, 0x0127
    1b12:	a0 91 28 01 	lds	r26, 0x0128
    1b16:	b0 91 29 01 	lds	r27, 0x0129
    1b1a:	83 0d       	add	r24, r3
    1b1c:	91 1d       	adc	r25, r1
    1b1e:	a1 1d       	adc	r26, r1
    1b20:	b1 1d       	adc	r27, r1
    1b22:	e0 91 18 01 	lds	r30, 0x0118
    1b26:	f0 91 19 01 	lds	r31, 0x0119
    1b2a:	ae 01       	movw	r20, r28
    1b2c:	bc 01       	movw	r22, r24
    1b2e:	cd 01       	movw	r24, r26
    1b30:	09 95       	icall
    1b32:	88 23       	and	r24, r24
    1b34:	09 f0       	breq	.+2      	; 0x1b38 <SearchFolder+0x9a>
    1b36:	52 c0       	rjmp	.+164    	; 0x1bdc <SearchFolder+0x13e>
			for(offset=0;offset<512;offset+=32)
    1b38:	66 24       	eor	r6, r6
    1b3a:	77 24       	eor	r7, r7
			{
				item=(struct direntry *)(&buffer[offset]);//pointer convert
    1b3c:	fe 01       	movw	r30, r28
    1b3e:	e6 0d       	add	r30, r6
    1b40:	f7 1d       	adc	r31, r7
				//find a valid item and display it
				if((item->deName[0] != '.') && (item->deName[0] != 0x00) && (item->deName[0] != 0xe5))
    1b42:	80 81       	ld	r24, Z
    1b44:	8e 32       	cpi	r24, 0x2E	; 46
    1b46:	51 f1       	breq	.+84     	; 0x1b9c <SearchFolder+0xfe>
    1b48:	88 23       	and	r24, r24
    1b4a:	41 f1       	breq	.+80     	; 0x1b9c <SearchFolder+0xfe>
    1b4c:	85 3e       	cpi	r24, 0xE5	; 229
    1b4e:	31 f1       	breq	.+76     	; 0x1b9c <SearchFolder+0xfe>
				{
					if(item->deAttributes & ATTR_DIRECTORY )
    1b50:	83 85       	ldd	r24, Z+11	; 0x0b
    1b52:	84 ff       	sbrs	r24, 4
    1b54:	23 c0       	rjmp	.+70     	; 0x1b9c <SearchFolder+0xfe>
					{
						#if FAT_DEBUG
							printf_P(PSTR("\r\nFound a folder!"));
						#endif
						if(*addr==RECORD_ADDR_END)return 0;
    1b56:	d2 01       	movw	r26, r4
    1b58:	0d 91       	ld	r16, X+
    1b5a:	1c 91       	ld	r17, X
    1b5c:	b2 e0       	ldi	r27, 0x02	; 2
    1b5e:	00 30       	cpi	r16, 0x00	; 0
    1b60:	1b 07       	cpc	r17, r27
    1b62:	09 f4       	brne	.+2      	; 0x1b66 <SearchFolder+0xc8>
    1b64:	f4 c0       	rjmp	.+488    	; 0x1d4e <SearchFolder+0x2b0>
						else
						{
							WriteFolderCluster(*addr,item->deStartCluster+(((unsigned long)item->deHighClust)<<16));
    1b66:	82 8d       	ldd	r24, Z+26	; 0x1a
    1b68:	93 8d       	ldd	r25, Z+27	; 0x1b
    1b6a:	9c 01       	movw	r18, r24
    1b6c:	44 27       	eor	r20, r20
    1b6e:	55 27       	eor	r21, r21
    1b70:	84 89       	ldd	r24, Z+20	; 0x14
    1b72:	95 89       	ldd	r25, Z+21	; 0x15
    1b74:	aa 27       	eor	r26, r26
    1b76:	bb 27       	eor	r27, r27
    1b78:	dc 01       	movw	r26, r24
    1b7a:	99 27       	eor	r25, r25
    1b7c:	88 27       	eor	r24, r24
    1b7e:	28 0f       	add	r18, r24
    1b80:	39 1f       	adc	r19, r25
    1b82:	4a 1f       	adc	r20, r26
    1b84:	5b 1f       	adc	r21, r27
    1b86:	ba 01       	movw	r22, r20
    1b88:	a9 01       	movw	r20, r18
    1b8a:	c8 01       	movw	r24, r16
    1b8c:	0e 94 f2 0c 	call	0x19e4 <WriteFolderCluster>
							*addr+=4;
    1b90:	f2 01       	movw	r30, r4
    1b92:	80 81       	ld	r24, Z
    1b94:	91 81       	ldd	r25, Z+1	; 0x01
    1b96:	04 96       	adiw	r24, 0x04	; 4
    1b98:	91 83       	std	Z+1, r25	; 0x01
    1b9a:	80 83       	st	Z, r24
    1b9c:	80 e2       	ldi	r24, 0x20	; 32
    1b9e:	90 e0       	ldi	r25, 0x00	; 0
    1ba0:	68 0e       	add	r6, r24
    1ba2:	79 1e       	adc	r7, r25
    1ba4:	90 e0       	ldi	r25, 0x00	; 0
    1ba6:	69 16       	cp	r6, r25
    1ba8:	92 e0       	ldi	r25, 0x02	; 2
    1baa:	79 06       	cpc	r7, r25
    1bac:	38 f2       	brcs	.-114    	; 0x1b3c <SearchFolder+0x9e>
    1bae:	33 94       	inc	r3
    1bb0:	23 2d       	mov	r18, r3
    1bb2:	33 27       	eor	r19, r19
    1bb4:	44 27       	eor	r20, r20
    1bb6:	55 27       	eor	r21, r21
    1bb8:	80 91 4a 01 	lds	r24, 0x014A
    1bbc:	90 91 4b 01 	lds	r25, 0x014B
    1bc0:	a0 91 4c 01 	lds	r26, 0x014C
    1bc4:	b0 91 4d 01 	lds	r27, 0x014D
    1bc8:	28 17       	cp	r18, r24
    1bca:	39 07       	cpc	r19, r25
    1bcc:	4a 07       	cpc	r20, r26
    1bce:	5b 07       	cpc	r21, r27
    1bd0:	08 f4       	brcc	.+2      	; 0x1bd4 <SearchFolder+0x136>
    1bd2:	9b cf       	rjmp	.-202    	; 0x1b0a <SearchFolder+0x6c>
						}
					}
				}
			}
		}
		free(buffer);//release
    1bd4:	ce 01       	movw	r24, r28
    1bd6:	0e 94 0f 15 	call	0x2a1e <free>
    1bda:	b9 c0       	rjmp	.+370    	; 0x1d4e <SearchFolder+0x2b0>
	}
	else//other folders
	{
		tempclust=cluster;
		while(1)
		{
			sector=FirstDataSector+(DWORD)(tempclust-2)*(DWORD)SectorsPerClust;//calculate the actual sector number
			buffer=malloc(512);//apply memory
			if(buffer==0)return 1;//if failed
			for(cnt=0;cnt<SectorsPerClust;cnt++)
			{
				if(FAT_ReadSector(sector+cnt,buffer)){free(buffer);return 1;}
    1bdc:	ce 01       	movw	r24, r28
    1bde:	0e 94 0f 15 	call	0x2a1e <free>
    1be2:	81 e0       	ldi	r24, 0x01	; 1
    1be4:	90 e0       	ldi	r25, 0x00	; 0
    1be6:	b5 c0       	rjmp	.+362    	; 0x1d52 <SearchFolder+0x2b4>
    1be8:	57 01       	movw	r10, r14
    1bea:	68 01       	movw	r12, r16
    1bec:	ae ef       	ldi	r26, 0xFE	; 254
    1bee:	ea 2e       	mov	r14, r26
    1bf0:	af ef       	ldi	r26, 0xFF	; 255
    1bf2:	fa 2e       	mov	r15, r26
    1bf4:	af ef       	ldi	r26, 0xFF	; 255
    1bf6:	0a 2f       	mov	r16, r26
    1bf8:	af ef       	ldi	r26, 0xFF	; 255
    1bfa:	1a 2f       	mov	r17, r26
    1bfc:	ea 0c       	add	r14, r10
    1bfe:	fb 1c       	adc	r15, r11
    1c00:	0c 1d       	adc	r16, r12
    1c02:	1d 1d       	adc	r17, r13
    1c04:	80 91 2e 01 	lds	r24, 0x012E
    1c08:	90 91 2f 01 	lds	r25, 0x012F
    1c0c:	9c 01       	movw	r18, r24
    1c0e:	44 27       	eor	r20, r20
    1c10:	55 27       	eor	r21, r21
    1c12:	c8 01       	movw	r24, r16
    1c14:	b7 01       	movw	r22, r14
    1c16:	0e 94 6b 15 	call	0x2ad6 <__mulsi3>
    1c1a:	dc 01       	movw	r26, r24
    1c1c:	cb 01       	movw	r24, r22
    1c1e:	e0 90 30 01 	lds	r14, 0x0130
    1c22:	f0 90 31 01 	lds	r15, 0x0131
    1c26:	00 91 32 01 	lds	r16, 0x0132
    1c2a:	10 91 33 01 	lds	r17, 0x0133
    1c2e:	e8 0e       	add	r14, r24
    1c30:	f9 1e       	adc	r15, r25
    1c32:	0a 1f       	adc	r16, r26
    1c34:	1b 1f       	adc	r17, r27
    1c36:	80 e0       	ldi	r24, 0x00	; 0
    1c38:	92 e0       	ldi	r25, 0x02	; 2
    1c3a:	0e 94 75 14 	call	0x28ea <malloc>
    1c3e:	ec 01       	movw	r28, r24
    1c40:	89 2b       	or	r24, r25
    1c42:	79 f2       	breq	.-98     	; 0x1be2 <SearchFolder+0x144>
    1c44:	33 24       	eor	r3, r3
    1c46:	80 91 2e 01 	lds	r24, 0x012E
    1c4a:	90 91 2f 01 	lds	r25, 0x012F
    1c4e:	89 2b       	or	r24, r25
    1c50:	09 f4       	brne	.+2      	; 0x1c54 <SearchFolder+0x1b6>
    1c52:	58 c0       	rjmp	.+176    	; 0x1d04 <SearchFolder+0x266>
    1c54:	d8 01       	movw	r26, r16
    1c56:	c7 01       	movw	r24, r14
    1c58:	83 0d       	add	r24, r3
    1c5a:	91 1d       	adc	r25, r1
    1c5c:	a1 1d       	adc	r26, r1
    1c5e:	b1 1d       	adc	r27, r1
    1c60:	e0 91 18 01 	lds	r30, 0x0118
    1c64:	f0 91 19 01 	lds	r31, 0x0119
    1c68:	ae 01       	movw	r20, r28
    1c6a:	bc 01       	movw	r22, r24
    1c6c:	cd 01       	movw	r24, r26
    1c6e:	09 95       	icall
    1c70:	88 23       	and	r24, r24
    1c72:	09 f0       	breq	.+2      	; 0x1c76 <SearchFolder+0x1d8>
    1c74:	b3 cf       	rjmp	.-154    	; 0x1bdc <SearchFolder+0x13e>
				for(offset=0;offset<512;offset+=32)
    1c76:	66 24       	eor	r6, r6
    1c78:	77 24       	eor	r7, r7
				{
					item=(struct direntry *)(&buffer[offset]);
    1c7a:	fe 01       	movw	r30, r28
    1c7c:	e6 0d       	add	r30, r6
    1c7e:	f7 1d       	adc	r31, r7
					if((item->deName[0] != '.') && (item->deName[0] != 0x00) && (item->deName[0] != 0xe5))
    1c80:	80 81       	ld	r24, Z
    1c82:	8e 32       	cpi	r24, 0x2E	; 46
    1c84:	59 f1       	breq	.+86     	; 0x1cdc <SearchFolder+0x23e>
    1c86:	88 23       	and	r24, r24
    1c88:	49 f1       	breq	.+82     	; 0x1cdc <SearchFolder+0x23e>
    1c8a:	85 3e       	cpi	r24, 0xE5	; 229
    1c8c:	39 f1       	breq	.+78     	; 0x1cdc <SearchFolder+0x23e>
					{				
						if(item->deAttributes & ATTR_DIRECTORY )
    1c8e:	83 85       	ldd	r24, Z+11	; 0x0b
    1c90:	84 ff       	sbrs	r24, 4
    1c92:	24 c0       	rjmp	.+72     	; 0x1cdc <SearchFolder+0x23e>
						{
							#if FAT_DEBUG
								printf_P(PSTR("\r\nFound a folder!"));
							#endif
							if(*addr==RECORD_ADDR_END)return 0;
    1c94:	d2 01       	movw	r26, r4
    1c96:	8d 90       	ld	r8, X+
    1c98:	9c 90       	ld	r9, X
    1c9a:	b0 e0       	ldi	r27, 0x00	; 0
    1c9c:	8b 16       	cp	r8, r27
    1c9e:	b2 e0       	ldi	r27, 0x02	; 2
    1ca0:	9b 06       	cpc	r9, r27
    1ca2:	09 f4       	brne	.+2      	; 0x1ca6 <SearchFolder+0x208>
    1ca4:	54 c0       	rjmp	.+168    	; 0x1d4e <SearchFolder+0x2b0>
							else
							{
								WriteFolderCluster(*addr,item->deStartCluster+(((unsigned long)item->deHighClust)<<16));
    1ca6:	82 8d       	ldd	r24, Z+26	; 0x1a
    1ca8:	93 8d       	ldd	r25, Z+27	; 0x1b
    1caa:	9c 01       	movw	r18, r24
    1cac:	44 27       	eor	r20, r20
    1cae:	55 27       	eor	r21, r21
    1cb0:	84 89       	ldd	r24, Z+20	; 0x14
    1cb2:	95 89       	ldd	r25, Z+21	; 0x15
    1cb4:	aa 27       	eor	r26, r26
    1cb6:	bb 27       	eor	r27, r27
    1cb8:	dc 01       	movw	r26, r24
    1cba:	99 27       	eor	r25, r25
    1cbc:	88 27       	eor	r24, r24
    1cbe:	28 0f       	add	r18, r24
    1cc0:	39 1f       	adc	r19, r25
    1cc2:	4a 1f       	adc	r20, r26
    1cc4:	5b 1f       	adc	r21, r27
    1cc6:	ba 01       	movw	r22, r20
    1cc8:	a9 01       	movw	r20, r18
    1cca:	c4 01       	movw	r24, r8
    1ccc:	0e 94 f2 0c 	call	0x19e4 <WriteFolderCluster>
								*addr+=4;
    1cd0:	f2 01       	movw	r30, r4
    1cd2:	80 81       	ld	r24, Z
    1cd4:	91 81       	ldd	r25, Z+1	; 0x01
    1cd6:	04 96       	adiw	r24, 0x04	; 4
    1cd8:	91 83       	std	Z+1, r25	; 0x01
    1cda:	80 83       	st	Z, r24
    1cdc:	80 e2       	ldi	r24, 0x20	; 32
    1cde:	90 e0       	ldi	r25, 0x00	; 0
    1ce0:	68 0e       	add	r6, r24
    1ce2:	79 1e       	adc	r7, r25
    1ce4:	90 e0       	ldi	r25, 0x00	; 0
    1ce6:	69 16       	cp	r6, r25
    1ce8:	92 e0       	ldi	r25, 0x02	; 2
    1cea:	79 06       	cpc	r7, r25
    1cec:	30 f2       	brcs	.-116    	; 0x1c7a <SearchFolder+0x1dc>
    1cee:	33 94       	inc	r3
    1cf0:	23 2d       	mov	r18, r3
    1cf2:	33 27       	eor	r19, r19
    1cf4:	80 91 2e 01 	lds	r24, 0x012E
    1cf8:	90 91 2f 01 	lds	r25, 0x012F
    1cfc:	28 17       	cp	r18, r24
    1cfe:	39 07       	cpc	r19, r25
    1d00:	08 f4       	brcc	.+2      	; 0x1d04 <SearchFolder+0x266>
    1d02:	a8 cf       	rjmp	.-176    	; 0x1c54 <SearchFolder+0x1b6>
							}
						}
					}
				}
			}
			free(buffer);//release
    1d04:	ce 01       	movw	r24, r28
    1d06:	0e 94 0f 15 	call	0x2a1e <free>
			tempclust=FAT_NextCluster(tempclust);//next cluster
    1d0a:	c6 01       	movw	r24, r12
    1d0c:	b5 01       	movw	r22, r10
    1d0e:	0e 94 e6 0b 	call	0x17cc <FAT_NextCluster>
    1d12:	5b 01       	movw	r10, r22
    1d14:	6c 01       	movw	r12, r24
			if(tempclust == 0x0fffffff || tempclust == 0x0ffffff8 || (FAT32_Enable == 0 && tempclust == 0xffff))break;
    1d16:	6f 3f       	cpi	r22, 0xFF	; 255
    1d18:	af ef       	ldi	r26, 0xFF	; 255
    1d1a:	7a 07       	cpc	r23, r26
    1d1c:	af ef       	ldi	r26, 0xFF	; 255
    1d1e:	8a 07       	cpc	r24, r26
    1d20:	af e0       	ldi	r26, 0x0F	; 15
    1d22:	9a 07       	cpc	r25, r26
    1d24:	a1 f0       	breq	.+40     	; 0x1d4e <SearchFolder+0x2b0>
    1d26:	68 5f       	subi	r22, 0xF8	; 248
    1d28:	7f 4f       	sbci	r23, 0xFF	; 255
    1d2a:	8f 4f       	sbci	r24, 0xFF	; 255
    1d2c:	9f 40       	sbci	r25, 0x0F	; 15
    1d2e:	79 f0       	breq	.+30     	; 0x1d4e <SearchFolder+0x2b0>
    1d30:	80 91 47 01 	lds	r24, 0x0147
    1d34:	88 23       	and	r24, r24
    1d36:	09 f0       	breq	.+2      	; 0x1d3a <SearchFolder+0x29c>
    1d38:	59 cf       	rjmp	.-334    	; 0x1bec <SearchFolder+0x14e>
    1d3a:	ef ef       	ldi	r30, 0xFF	; 255
    1d3c:	ae 16       	cp	r10, r30
    1d3e:	ef ef       	ldi	r30, 0xFF	; 255
    1d40:	be 06       	cpc	r11, r30
    1d42:	e0 e0       	ldi	r30, 0x00	; 0
    1d44:	ce 06       	cpc	r12, r30
    1d46:	e0 e0       	ldi	r30, 0x00	; 0
    1d48:	de 06       	cpc	r13, r30
    1d4a:	09 f0       	breq	.+2      	; 0x1d4e <SearchFolder+0x2b0>
    1d4c:	4f cf       	rjmp	.-354    	; 0x1bec <SearchFolder+0x14e>
		}
	}
	return 0;		
    1d4e:	80 e0       	ldi	r24, 0x00	; 0
    1d50:	90 e0       	ldi	r25, 0x00	; 0
    1d52:	df 91       	pop	r29
    1d54:	cf 91       	pop	r28
    1d56:	1f 91       	pop	r17
    1d58:	0f 91       	pop	r16
    1d5a:	ff 90       	pop	r15
    1d5c:	ef 90       	pop	r14
    1d5e:	df 90       	pop	r13
    1d60:	cf 90       	pop	r12
    1d62:	bf 90       	pop	r11
    1d64:	af 90       	pop	r10
    1d66:	9f 90       	pop	r9
    1d68:	8f 90       	pop	r8
    1d6a:	7f 90       	pop	r7
    1d6c:	6f 90       	pop	r6
    1d6e:	5f 90       	pop	r5
    1d70:	4f 90       	pop	r4
    1d72:	3f 90       	pop	r3
    1d74:	08 95       	ret

00001d76 <SearchInit>:
}



BYTE SearchInit()
{	
    1d76:	0f 93       	push	r16
    1d78:	1f 93       	push	r17
    1d7a:	cf 93       	push	r28
    1d7c:	df 93       	push	r29
    1d7e:	cd b7       	in	r28, 0x3d	; 61
    1d80:	de b7       	in	r29, 0x3e	; 62
    1d82:	22 97       	sbiw	r28, 0x02	; 2
    1d84:	0f b6       	in	r0, 0x3f	; 63
    1d86:	f8 94       	cli
    1d88:	de bf       	out	0x3e, r29	; 62
    1d8a:	0f be       	out	0x3f, r0	; 63
    1d8c:	cd bf       	out	0x3d, r28	; 61
	WORD addr = RECORD_ADDR_START;
    1d8e:	00 e0       	ldi	r16, 0x00	; 0
    1d90:	10 e0       	ldi	r17, 0x00	; 0
	WORD temp_addr;
	DWORD cluster;
	
#if FAT_DEBUG
	printf_P(PSTR("\r\nSearchInit"));
#endif

	if(FAT32_Enable)
    1d92:	80 91 47 01 	lds	r24, 0x0147
    1d96:	88 23       	and	r24, r24
    1d98:	71 f0       	breq	.+28     	; 0x1db6 <SearchInit+0x40>
		WriteFolderCluster(addr,FirstDirClust);
    1d9a:	80 91 50 01 	lds	r24, 0x0150
    1d9e:	90 91 51 01 	lds	r25, 0x0151
    1da2:	a0 91 52 01 	lds	r26, 0x0152
    1da6:	b0 91 53 01 	lds	r27, 0x0153
    1daa:	ac 01       	movw	r20, r24
    1dac:	bd 01       	movw	r22, r26
    1dae:	07 c0       	rjmp	.+14     	; 0x1dbe <SearchInit+0x48>
	else 
		WriteFolderCluster(RECORD_ADDR_START,0);
	
	addr += 4;
	
	WriteFolderCluster(addr, 0xffffffff);
	temp_addr = addr;
	addr = RECORD_ADDR_START;
	while(1)
	{
		cluster = GetFolderCluster(addr);
		if(cluster == 0xffffffff)return 0;
    1db0:	80 e0       	ldi	r24, 0x00	; 0
    1db2:	90 e0       	ldi	r25, 0x00	; 0
    1db4:	47 c0       	rjmp	.+142    	; 0x1e44 <SearchInit+0xce>
    1db6:	40 e0       	ldi	r20, 0x00	; 0
    1db8:	50 e0       	ldi	r21, 0x00	; 0
    1dba:	60 e0       	ldi	r22, 0x00	; 0
    1dbc:	70 e0       	ldi	r23, 0x00	; 0
    1dbe:	c8 01       	movw	r24, r16
    1dc0:	0e 94 f2 0c 	call	0x19e4 <WriteFolderCluster>
    1dc4:	04 e0       	ldi	r16, 0x04	; 4
    1dc6:	10 e0       	ldi	r17, 0x00	; 0
    1dc8:	4f ef       	ldi	r20, 0xFF	; 255
    1dca:	5f ef       	ldi	r21, 0xFF	; 255
    1dcc:	6f ef       	ldi	r22, 0xFF	; 255
    1dce:	7f ef       	ldi	r23, 0xFF	; 255
    1dd0:	c8 01       	movw	r24, r16
    1dd2:	0e 94 f2 0c 	call	0x19e4 <WriteFolderCluster>
    1dd6:	1a 83       	std	Y+2, r17	; 0x02
    1dd8:	09 83       	std	Y+1, r16	; 0x01
    1dda:	00 e0       	ldi	r16, 0x00	; 0
    1ddc:	10 e0       	ldi	r17, 0x00	; 0
    1dde:	c8 01       	movw	r24, r16
    1de0:	0e 94 1e 0d 	call	0x1a3c <GetFolderCluster>
    1de4:	6f 3f       	cpi	r22, 0xFF	; 255
    1de6:	2f ef       	ldi	r18, 0xFF	; 255
    1de8:	72 07       	cpc	r23, r18
    1dea:	2f ef       	ldi	r18, 0xFF	; 255
    1dec:	82 07       	cpc	r24, r18
    1dee:	2f ef       	ldi	r18, 0xFF	; 255
    1df0:	92 07       	cpc	r25, r18
    1df2:	f1 f2       	breq	.-68     	; 0x1db0 <SearchInit+0x3a>
		else
		{
			if(SearchFolder(cluster,&temp_addr))
    1df4:	ae 01       	movw	r20, r28
    1df6:	4f 5f       	subi	r20, 0xFF	; 255
    1df8:	5f 4f       	sbci	r21, 0xFF	; 255
    1dfa:	0e 94 4f 0d 	call	0x1a9e <SearchFolder>
			{
				#if FAT_DEBUG
					printf_P(PSTR("\r\nERROR: search folder error"));
				#endif
			}
			#if FAT_DEBUG
				printf_P(PSTR("\r\nSearch one folder, write the end flag if the the value is not the right value"));
			#endif
			if(GetFolderCluster(temp_addr) != 0xffffffff)
    1dfe:	89 81       	ldd	r24, Y+1	; 0x01
    1e00:	9a 81       	ldd	r25, Y+2	; 0x02
    1e02:	0e 94 1e 0d 	call	0x1a3c <GetFolderCluster>
    1e06:	dc 01       	movw	r26, r24
    1e08:	cb 01       	movw	r24, r22
    1e0a:	8f 5f       	subi	r24, 0xFF	; 255
    1e0c:	9f 4f       	sbci	r25, 0xFF	; 255
    1e0e:	af 4f       	sbci	r26, 0xFF	; 255
    1e10:	bf 4f       	sbci	r27, 0xFF	; 255
    1e12:	41 f0       	breq	.+16     	; 0x1e24 <SearchInit+0xae>
				WriteFolderCluster(temp_addr,0XFFFFFFFF);
    1e14:	4f ef       	ldi	r20, 0xFF	; 255
    1e16:	5f ef       	ldi	r21, 0xFF	; 255
    1e18:	6f ef       	ldi	r22, 0xFF	; 255
    1e1a:	7f ef       	ldi	r23, 0xFF	; 255
    1e1c:	89 81       	ldd	r24, Y+1	; 0x01
    1e1e:	9a 81       	ldd	r25, Y+2	; 0x02
    1e20:	0e 94 f2 0c 	call	0x19e4 <WriteFolderCluster>
			if(temp_addr == RECORD_ADDR_END)
    1e24:	89 81       	ldd	r24, Y+1	; 0x01
    1e26:	9a 81       	ldd	r25, Y+2	; 0x02
    1e28:	22 e0       	ldi	r18, 0x02	; 2
    1e2a:	80 30       	cpi	r24, 0x00	; 0
    1e2c:	92 07       	cpc	r25, r18
    1e2e:	19 f0       	breq	.+6      	; 0x1e36 <SearchInit+0xc0>
			{
				#if FAT_DEBUG
					printf_P(PSTR("\r\nWARNING: EEPROM is full, no more space!"));
				#endif
				WriteFolderCluster(temp_addr - 4,0XFFFFFFFF);
				break;
			}
		}
		addr+=4;
    1e30:	0c 5f       	subi	r16, 0xFC	; 252
    1e32:	1f 4f       	sbci	r17, 0xFF	; 255
    1e34:	d4 cf       	rjmp	.-88     	; 0x1dde <SearchInit+0x68>
    1e36:	4f ef       	ldi	r20, 0xFF	; 255
    1e38:	5f ef       	ldi	r21, 0xFF	; 255
    1e3a:	6f ef       	ldi	r22, 0xFF	; 255
    1e3c:	7f ef       	ldi	r23, 0xFF	; 255
    1e3e:	04 97       	sbiw	r24, 0x04	; 4
    1e40:	0e 94 f2 0c 	call	0x19e4 <WriteFolderCluster>
    1e44:	22 96       	adiw	r28, 0x02	; 2
    1e46:	0f b6       	in	r0, 0x3f	; 63
    1e48:	f8 94       	cli
    1e4a:	de bf       	out	0x3e, r29	; 62
    1e4c:	0f be       	out	0x3f, r0	; 63
    1e4e:	cd bf       	out	0x3d, r28	; 61
    1e50:	df 91       	pop	r29
    1e52:	cf 91       	pop	r28
    1e54:	1f 91       	pop	r17
    1e56:	0f 91       	pop	r16
    1e58:	08 95       	ret

00001e5a <Search>:
	}
	#if FAT_DEBUG
		printf_P(PSTR("\r\nSearch Completed!"));
	#endif
}


//search the file , when *count = 0 it will bring the number whole songs, when *cout != 0 the *MusicInfo will bring the infomation of the file
BYTE Search(/*BYTE *dirWORD *music_record_addr,*/struct direntry *MusicInfo,WORD *Count,BYTE *type)//当COUNT为零时，有它带回这个目录下总共有多少首音乐
{                                                            //不为零时有MusicInfo带回第Count首歌的详细文件信息
    1e5a:	2f 92       	push	r2
    1e5c:	3f 92       	push	r3
    1e5e:	5f 92       	push	r5
    1e60:	6f 92       	push	r6
    1e62:	7f 92       	push	r7
    1e64:	8f 92       	push	r8
    1e66:	9f 92       	push	r9
    1e68:	af 92       	push	r10
    1e6a:	bf 92       	push	r11
    1e6c:	cf 92       	push	r12
    1e6e:	df 92       	push	r13
    1e70:	ef 92       	push	r14
    1e72:	ff 92       	push	r15
    1e74:	0f 93       	push	r16
    1e76:	1f 93       	push	r17
    1e78:	cf 93       	push	r28
    1e7a:	df 93       	push	r29
    1e7c:	cd b7       	in	r28, 0x3d	; 61
    1e7e:	de b7       	in	r29, 0x3e	; 62
    1e80:	29 97       	sbiw	r28, 0x09	; 9
    1e82:	0f b6       	in	r0, 0x3f	; 63
    1e84:	f8 94       	cli
    1e86:	de bf       	out	0x3e, r29	; 62
    1e88:	0f be       	out	0x3f, r0	; 63
    1e8a:	cd bf       	out	0x3d, r28	; 61
    1e8c:	9d 83       	std	Y+5, r25	; 0x05
    1e8e:	8c 83       	std	Y+4, r24	; 0x04
    1e90:	7f 83       	std	Y+7, r23	; 0x07
    1e92:	6e 83       	std	Y+6, r22	; 0x06
    1e94:	fa 01       	movw	r30, r20
	BYTE *buffer;
	DWORD sector;
	DWORD cluster;
	DWORD tempclust;
	unsigned char cnt;
	unsigned int offset;
	unsigned int i=0;
    1e96:	22 24       	eor	r2, r2
    1e98:	33 24       	eor	r3, r3
	//unsigned char j;//long name buffer offset;
	//unsigned char *p;//long name buffer pointer
	struct direntry *item = 0;
	//struct winentry *we =0;
	//cluster = FAT_OpenDir(dir);
	//if(cluster == 1)return 1;
	
	BYTE file_type[3] ;
	
	switch(*type)
    1e9a:	80 81       	ld	r24, Z
    1e9c:	99 27       	eor	r25, r25
    1e9e:	81 30       	cpi	r24, 0x01	; 1
    1ea0:	91 05       	cpc	r25, r1
    1ea2:	19 f0       	breq	.+6      	; 0x1eaa <Search+0x50>
    1ea4:	02 97       	sbiw	r24, 0x02	; 2
    1ea6:	89 f0       	breq	.+34     	; 0x1eca <Search+0x70>
    1ea8:	16 c0       	rjmp	.+44     	; 0x1ed6 <Search+0x7c>
	  {
	    case  1 : file_type[0] = 'B' ;
    1eaa:	82 e4       	ldi	r24, 0x42	; 66
    1eac:	89 83       	std	Y+1, r24	; 0x01
                  file_type[1] = 'M' ; 
    1eae:	8d e4       	ldi	r24, 0x4D	; 77
    1eb0:	8a 83       	std	Y+2, r24	; 0x02
				  file_type[2] = 'P' ;
    1eb2:	80 e5       	ldi	r24, 0x50	; 80
    1eb4:	0f c0       	rjmp	.+30     	; 0x1ed4 <Search+0x7a>
				  
				  break ;
				  
		case  2 : file_type[0] = 'B' ;
		          file_type[1] = 'I' ;
				  file_type[2] = 'N' ;
				  
				  break;
				  
	  
	  }
	
	
	WORD addr = RECORD_ADDR_START;
	while(1)
	{
		cluster = GetFolderCluster(addr);
		addr += 4;
		if(cluster == 0xffffffff) break;
		
		else
		{
			//*music_record_addr = addr - 4;	/* record in which record found the right file */
			if(cluster==0 && FAT32_Enable==0)// root directory
			{
			
			
				buffer=malloc(512);//apply memory
				if(buffer==0)return 1;//if failed
				
				
				for(cnt=0;cnt<RootDirSectors;cnt++)
				{
					if(FAT_ReadSector(FirstDirSector+cnt,buffer)){free(buffer);return 1;}
					for(offset=0;offset<512;offset+=32)
					{
						item=(struct direntry *)(&buffer[offset]);//pointer convert
						//find a valid item and display it
						if((item->deName[0] != '.') && (item->deName[0] != 0x00) && (item->deName[0] != 0xe5) && (item->deAttributes != 0x0f))
						{
						
							if((item->deExtension[0] == file_type[0])&&(item->deExtension[1] == file_type[1])&&(item->deExtension[2] == file_type[2]))
							{
								
								CopyDirentruyItem(MusicInfo,item);
								
								i++;
								if(i==*Count){free(buffer);return 0;}
							}							 
						}
					}
				}
				free(buffer);//release
			}
			else//other folders
			{
				tempclust=cluster;
				while(1)
				{
					sector=FirstDataSector+(DWORD)(tempclust-2)*(DWORD)SectorsPerClust;//calculate the actual sector number
					buffer=malloc(512);//apply memory
					if(buffer==0)return 1;//if failed
					for(cnt=0;cnt<SectorsPerClust;cnt++)
					{
						if(FAT_ReadSector(sector+cnt,buffer)){free(buffer);return 1;}
    1eb6:	c6 01       	movw	r24, r12
    1eb8:	0e 94 0f 15 	call	0x2a1e <free>
    1ebc:	81 e0       	ldi	r24, 0x01	; 1
    1ebe:	90 e0       	ldi	r25, 0x00	; 0
    1ec0:	5d c1       	rjmp	.+698    	; 0x217c <Search+0x322>
						for(offset=0;offset<512;offset+=32)
						{
							item=(struct direntry *)(&buffer[offset]);
							if((item->deName[0] != '.') && (item->deName[0] != 0x00) && (item->deName[0] != 0xe5) && (item->deAttributes != 0x0f))
							{		
                               		
								if((item->deExtension[0] == file_type[0])&&(item->deExtension[1] == file_type[1])&&(item->deExtension[2] == file_type[2]))
								{
								    
									CopyDirentruyItem(MusicInfo,item);
									
									i++;
									if(i==*Count){free(buffer);return 0;}
    1ec2:	c6 01       	movw	r24, r12
    1ec4:	0e 94 0f 15 	call	0x2a1e <free>
    1ec8:	57 c1       	rjmp	.+686    	; 0x2178 <Search+0x31e>
    1eca:	82 e4       	ldi	r24, 0x42	; 66
    1ecc:	89 83       	std	Y+1, r24	; 0x01
    1ece:	89 e4       	ldi	r24, 0x49	; 73
    1ed0:	8a 83       	std	Y+2, r24	; 0x02
    1ed2:	8e e4       	ldi	r24, 0x4E	; 78
    1ed4:	8b 83       	std	Y+3, r24	; 0x03
    1ed6:	19 86       	std	Y+9, r1	; 0x09
    1ed8:	18 86       	std	Y+8, r1	; 0x08
    1eda:	88 85       	ldd	r24, Y+8	; 0x08
    1edc:	99 85       	ldd	r25, Y+9	; 0x09
    1ede:	0e 94 1e 0d 	call	0x1a3c <GetFolderCluster>
    1ee2:	7b 01       	movw	r14, r22
    1ee4:	8c 01       	movw	r16, r24
    1ee6:	88 85       	ldd	r24, Y+8	; 0x08
    1ee8:	99 85       	ldd	r25, Y+9	; 0x09
    1eea:	04 96       	adiw	r24, 0x04	; 4
    1eec:	99 87       	std	Y+9, r25	; 0x09
    1eee:	88 87       	std	Y+8, r24	; 0x08
    1ef0:	9f ef       	ldi	r25, 0xFF	; 255
    1ef2:	e9 16       	cp	r14, r25
    1ef4:	9f ef       	ldi	r25, 0xFF	; 255
    1ef6:	f9 06       	cpc	r15, r25
    1ef8:	9f ef       	ldi	r25, 0xFF	; 255
    1efa:	09 07       	cpc	r16, r25
    1efc:	9f ef       	ldi	r25, 0xFF	; 255
    1efe:	19 07       	cpc	r17, r25
    1f00:	09 f4       	brne	.+2      	; 0x1f04 <Search+0xaa>
    1f02:	32 c1       	rjmp	.+612    	; 0x2168 <Search+0x30e>
    1f04:	e1 14       	cp	r14, r1
    1f06:	f1 04       	cpc	r15, r1
    1f08:	01 05       	cpc	r16, r1
    1f0a:	11 05       	cpc	r17, r1
    1f0c:	09 f0       	breq	.+2      	; 0x1f10 <Search+0xb6>
    1f0e:	7d c0       	rjmp	.+250    	; 0x200a <Search+0x1b0>
    1f10:	b0 90 47 01 	lds	r11, 0x0147
    1f14:	bb 20       	and	r11, r11
    1f16:	09 f0       	breq	.+2      	; 0x1f1a <Search+0xc0>
    1f18:	78 c0       	rjmp	.+240    	; 0x200a <Search+0x1b0>
    1f1a:	80 e0       	ldi	r24, 0x00	; 0
    1f1c:	92 e0       	ldi	r25, 0x02	; 2
    1f1e:	0e 94 75 14 	call	0x28ea <malloc>
    1f22:	6c 01       	movw	r12, r24
    1f24:	89 2b       	or	r24, r25
    1f26:	51 f2       	breq	.-108    	; 0x1ebc <Search+0x62>
    1f28:	5b 2c       	mov	r5, r11
    1f2a:	80 91 4a 01 	lds	r24, 0x014A
    1f2e:	90 91 4b 01 	lds	r25, 0x014B
    1f32:	a0 91 4c 01 	lds	r26, 0x014C
    1f36:	b0 91 4d 01 	lds	r27, 0x014D
    1f3a:	e8 16       	cp	r14, r24
    1f3c:	f9 06       	cpc	r15, r25
    1f3e:	0a 07       	cpc	r16, r26
    1f40:	1b 07       	cpc	r17, r27
    1f42:	08 f0       	brcs	.+2      	; 0x1f46 <Search+0xec>
    1f44:	5e c0       	rjmp	.+188    	; 0x2002 <Search+0x1a8>
    1f46:	80 91 26 01 	lds	r24, 0x0126
    1f4a:	90 91 27 01 	lds	r25, 0x0127
    1f4e:	a0 91 28 01 	lds	r26, 0x0128
    1f52:	b0 91 29 01 	lds	r27, 0x0129
    1f56:	85 0d       	add	r24, r5
    1f58:	91 1d       	adc	r25, r1
    1f5a:	a1 1d       	adc	r26, r1
    1f5c:	b1 1d       	adc	r27, r1
    1f5e:	e0 91 18 01 	lds	r30, 0x0118
    1f62:	f0 91 19 01 	lds	r31, 0x0119
    1f66:	a6 01       	movw	r20, r12
    1f68:	bc 01       	movw	r22, r24
    1f6a:	cd 01       	movw	r24, r26
    1f6c:	09 95       	icall
    1f6e:	88 23       	and	r24, r24
    1f70:	09 f0       	breq	.+2      	; 0x1f74 <Search+0x11a>
    1f72:	a1 cf       	rjmp	.-190    	; 0x1eb6 <Search+0x5c>
    1f74:	66 24       	eor	r6, r6
    1f76:	77 24       	eor	r7, r7
    1f78:	f6 01       	movw	r30, r12
    1f7a:	e6 0d       	add	r30, r6
    1f7c:	f7 1d       	adc	r31, r7
    1f7e:	80 81       	ld	r24, Z
    1f80:	8e 32       	cpi	r24, 0x2E	; 46
    1f82:	19 f1       	breq	.+70     	; 0x1fca <Search+0x170>
    1f84:	88 23       	and	r24, r24
    1f86:	09 f1       	breq	.+66     	; 0x1fca <Search+0x170>
    1f88:	85 3e       	cpi	r24, 0xE5	; 229
    1f8a:	f9 f0       	breq	.+62     	; 0x1fca <Search+0x170>
    1f8c:	83 85       	ldd	r24, Z+11	; 0x0b
    1f8e:	8f 30       	cpi	r24, 0x0F	; 15
    1f90:	e1 f0       	breq	.+56     	; 0x1fca <Search+0x170>
    1f92:	90 85       	ldd	r25, Z+8	; 0x08
    1f94:	89 81       	ldd	r24, Y+1	; 0x01
    1f96:	98 17       	cp	r25, r24
    1f98:	c1 f4       	brne	.+48     	; 0x1fca <Search+0x170>
    1f9a:	91 85       	ldd	r25, Z+9	; 0x09
    1f9c:	8a 81       	ldd	r24, Y+2	; 0x02
    1f9e:	98 17       	cp	r25, r24
    1fa0:	a1 f4       	brne	.+40     	; 0x1fca <Search+0x170>
    1fa2:	92 85       	ldd	r25, Z+10	; 0x0a
    1fa4:	8b 81       	ldd	r24, Y+3	; 0x03
    1fa6:	98 17       	cp	r25, r24
    1fa8:	81 f4       	brne	.+32     	; 0x1fca <Search+0x170>
    1faa:	bf 01       	movw	r22, r30
    1fac:	8c 81       	ldd	r24, Y+4	; 0x04
    1fae:	9d 81       	ldd	r25, Y+5	; 0x05
    1fb0:	0e 94 69 0c 	call	0x18d2 <CopyDirentruyItem>
    1fb4:	08 94       	sec
    1fb6:	21 1c       	adc	r2, r1
    1fb8:	31 1c       	adc	r3, r1
    1fba:	ee 81       	ldd	r30, Y+6	; 0x06
    1fbc:	ff 81       	ldd	r31, Y+7	; 0x07
    1fbe:	80 81       	ld	r24, Z
    1fc0:	91 81       	ldd	r25, Z+1	; 0x01
    1fc2:	28 16       	cp	r2, r24
    1fc4:	39 06       	cpc	r3, r25
    1fc6:	09 f4       	brne	.+2      	; 0x1fca <Search+0x170>
    1fc8:	7c cf       	rjmp	.-264    	; 0x1ec2 <Search+0x68>
    1fca:	80 e2       	ldi	r24, 0x20	; 32
    1fcc:	90 e0       	ldi	r25, 0x00	; 0
    1fce:	68 0e       	add	r6, r24
    1fd0:	79 1e       	adc	r7, r25
    1fd2:	90 e0       	ldi	r25, 0x00	; 0
    1fd4:	69 16       	cp	r6, r25
    1fd6:	92 e0       	ldi	r25, 0x02	; 2
    1fd8:	79 06       	cpc	r7, r25
    1fda:	70 f2       	brcs	.-100    	; 0x1f78 <Search+0x11e>
    1fdc:	53 94       	inc	r5
    1fde:	25 2d       	mov	r18, r5
    1fe0:	33 27       	eor	r19, r19
    1fe2:	44 27       	eor	r20, r20
    1fe4:	55 27       	eor	r21, r21
    1fe6:	80 91 4a 01 	lds	r24, 0x014A
    1fea:	90 91 4b 01 	lds	r25, 0x014B
    1fee:	a0 91 4c 01 	lds	r26, 0x014C
    1ff2:	b0 91 4d 01 	lds	r27, 0x014D
    1ff6:	28 17       	cp	r18, r24
    1ff8:	39 07       	cpc	r19, r25
    1ffa:	4a 07       	cpc	r20, r26
    1ffc:	5b 07       	cpc	r21, r27
    1ffe:	08 f4       	brcc	.+2      	; 0x2002 <Search+0x1a8>
    2000:	a2 cf       	rjmp	.-188    	; 0x1f46 <Search+0xec>
    2002:	c6 01       	movw	r24, r12
    2004:	0e 94 0f 15 	call	0x2a1e <free>
    2008:	68 cf       	rjmp	.-304    	; 0x1eda <Search+0x80>
    200a:	47 01       	movw	r8, r14
    200c:	58 01       	movw	r10, r16
    200e:	7e ef       	ldi	r23, 0xFE	; 254
    2010:	e7 2e       	mov	r14, r23
    2012:	7f ef       	ldi	r23, 0xFF	; 255
    2014:	f7 2e       	mov	r15, r23
    2016:	7f ef       	ldi	r23, 0xFF	; 255
    2018:	07 2f       	mov	r16, r23
    201a:	7f ef       	ldi	r23, 0xFF	; 255
    201c:	17 2f       	mov	r17, r23
    201e:	e8 0c       	add	r14, r8
    2020:	f9 1c       	adc	r15, r9
    2022:	0a 1d       	adc	r16, r10
    2024:	1b 1d       	adc	r17, r11
    2026:	80 91 2e 01 	lds	r24, 0x012E
    202a:	90 91 2f 01 	lds	r25, 0x012F
    202e:	9c 01       	movw	r18, r24
    2030:	44 27       	eor	r20, r20
    2032:	55 27       	eor	r21, r21
    2034:	c8 01       	movw	r24, r16
    2036:	b7 01       	movw	r22, r14
    2038:	0e 94 6b 15 	call	0x2ad6 <__mulsi3>
    203c:	dc 01       	movw	r26, r24
    203e:	cb 01       	movw	r24, r22
    2040:	e0 90 30 01 	lds	r14, 0x0130
    2044:	f0 90 31 01 	lds	r15, 0x0131
    2048:	00 91 32 01 	lds	r16, 0x0132
    204c:	10 91 33 01 	lds	r17, 0x0133
    2050:	e8 0e       	add	r14, r24
    2052:	f9 1e       	adc	r15, r25
    2054:	0a 1f       	adc	r16, r26
    2056:	1b 1f       	adc	r17, r27
    2058:	80 e0       	ldi	r24, 0x00	; 0
    205a:	92 e0       	ldi	r25, 0x02	; 2
    205c:	0e 94 75 14 	call	0x28ea <malloc>
    2060:	6c 01       	movw	r12, r24
    2062:	89 2b       	or	r24, r25
    2064:	09 f4       	brne	.+2      	; 0x2068 <Search+0x20e>
    2066:	2a cf       	rjmp	.-428    	; 0x1ebc <Search+0x62>
    2068:	55 24       	eor	r5, r5
    206a:	80 91 2e 01 	lds	r24, 0x012E
    206e:	90 91 2f 01 	lds	r25, 0x012F
    2072:	89 2b       	or	r24, r25
    2074:	09 f4       	brne	.+2      	; 0x2078 <Search+0x21e>
    2076:	50 c0       	rjmp	.+160    	; 0x2118 <Search+0x2be>
    2078:	d8 01       	movw	r26, r16
    207a:	c7 01       	movw	r24, r14
    207c:	85 0d       	add	r24, r5
    207e:	91 1d       	adc	r25, r1
    2080:	a1 1d       	adc	r26, r1
    2082:	b1 1d       	adc	r27, r1
    2084:	e0 91 18 01 	lds	r30, 0x0118
    2088:	f0 91 19 01 	lds	r31, 0x0119
    208c:	a6 01       	movw	r20, r12
    208e:	bc 01       	movw	r22, r24
    2090:	cd 01       	movw	r24, r26
    2092:	09 95       	icall
    2094:	88 23       	and	r24, r24
    2096:	09 f0       	breq	.+2      	; 0x209a <Search+0x240>
    2098:	0e cf       	rjmp	.-484    	; 0x1eb6 <Search+0x5c>
    209a:	66 24       	eor	r6, r6
    209c:	77 24       	eor	r7, r7
    209e:	f6 01       	movw	r30, r12
    20a0:	e6 0d       	add	r30, r6
    20a2:	f7 1d       	adc	r31, r7
    20a4:	80 81       	ld	r24, Z
    20a6:	8e 32       	cpi	r24, 0x2E	; 46
    20a8:	19 f1       	breq	.+70     	; 0x20f0 <Search+0x296>
    20aa:	88 23       	and	r24, r24
    20ac:	09 f1       	breq	.+66     	; 0x20f0 <Search+0x296>
    20ae:	85 3e       	cpi	r24, 0xE5	; 229
    20b0:	f9 f0       	breq	.+62     	; 0x20f0 <Search+0x296>
    20b2:	83 85       	ldd	r24, Z+11	; 0x0b
    20b4:	8f 30       	cpi	r24, 0x0F	; 15
    20b6:	e1 f0       	breq	.+56     	; 0x20f0 <Search+0x296>
    20b8:	90 85       	ldd	r25, Z+8	; 0x08
    20ba:	89 81       	ldd	r24, Y+1	; 0x01
    20bc:	98 17       	cp	r25, r24
    20be:	c1 f4       	brne	.+48     	; 0x20f0 <Search+0x296>
    20c0:	91 85       	ldd	r25, Z+9	; 0x09
    20c2:	8a 81       	ldd	r24, Y+2	; 0x02
    20c4:	98 17       	cp	r25, r24
    20c6:	a1 f4       	brne	.+40     	; 0x20f0 <Search+0x296>
    20c8:	92 85       	ldd	r25, Z+10	; 0x0a
    20ca:	8b 81       	ldd	r24, Y+3	; 0x03
    20cc:	98 17       	cp	r25, r24
    20ce:	81 f4       	brne	.+32     	; 0x20f0 <Search+0x296>
    20d0:	bf 01       	movw	r22, r30
    20d2:	8c 81       	ldd	r24, Y+4	; 0x04
    20d4:	9d 81       	ldd	r25, Y+5	; 0x05
    20d6:	0e 94 69 0c 	call	0x18d2 <CopyDirentruyItem>
    20da:	08 94       	sec
    20dc:	21 1c       	adc	r2, r1
    20de:	31 1c       	adc	r3, r1
    20e0:	ee 81       	ldd	r30, Y+6	; 0x06
    20e2:	ff 81       	ldd	r31, Y+7	; 0x07
    20e4:	80 81       	ld	r24, Z
    20e6:	91 81       	ldd	r25, Z+1	; 0x01
    20e8:	28 16       	cp	r2, r24
    20ea:	39 06       	cpc	r3, r25
    20ec:	09 f4       	brne	.+2      	; 0x20f0 <Search+0x296>
    20ee:	e9 ce       	rjmp	.-558    	; 0x1ec2 <Search+0x68>
    20f0:	80 e2       	ldi	r24, 0x20	; 32
    20f2:	90 e0       	ldi	r25, 0x00	; 0
    20f4:	68 0e       	add	r6, r24
    20f6:	79 1e       	adc	r7, r25
    20f8:	90 e0       	ldi	r25, 0x00	; 0
    20fa:	69 16       	cp	r6, r25
    20fc:	92 e0       	ldi	r25, 0x02	; 2
    20fe:	79 06       	cpc	r7, r25
    2100:	70 f2       	brcs	.-100    	; 0x209e <Search+0x244>
    2102:	53 94       	inc	r5
    2104:	25 2d       	mov	r18, r5
    2106:	33 27       	eor	r19, r19
    2108:	80 91 2e 01 	lds	r24, 0x012E
    210c:	90 91 2f 01 	lds	r25, 0x012F
    2110:	28 17       	cp	r18, r24
    2112:	39 07       	cpc	r19, r25
    2114:	08 f4       	brcc	.+2      	; 0x2118 <Search+0x2be>
    2116:	b0 cf       	rjmp	.-160    	; 0x2078 <Search+0x21e>
								}
							}
						}
					}
					free(buffer);//release
    2118:	c6 01       	movw	r24, r12
    211a:	0e 94 0f 15 	call	0x2a1e <free>
					tempclust=FAT_NextCluster(tempclust);//next cluster
    211e:	c5 01       	movw	r24, r10
    2120:	b4 01       	movw	r22, r8
    2122:	0e 94 e6 0b 	call	0x17cc <FAT_NextCluster>
    2126:	4b 01       	movw	r8, r22
    2128:	5c 01       	movw	r10, r24
					if(tempclust == 0x0fffffff || tempclust == 0x0ffffff8 || (FAT32_Enable == 0 && tempclust == 0xffff))break;
    212a:	6f 3f       	cpi	r22, 0xFF	; 255
    212c:	ef ef       	ldi	r30, 0xFF	; 255
    212e:	7e 07       	cpc	r23, r30
    2130:	ef ef       	ldi	r30, 0xFF	; 255
    2132:	8e 07       	cpc	r24, r30
    2134:	ef e0       	ldi	r30, 0x0F	; 15
    2136:	9e 07       	cpc	r25, r30
    2138:	09 f4       	brne	.+2      	; 0x213c <Search+0x2e2>
    213a:	cf ce       	rjmp	.-610    	; 0x1eda <Search+0x80>
    213c:	68 5f       	subi	r22, 0xF8	; 248
    213e:	7f 4f       	sbci	r23, 0xFF	; 255
    2140:	8f 4f       	sbci	r24, 0xFF	; 255
    2142:	9f 40       	sbci	r25, 0x0F	; 15
    2144:	09 f4       	brne	.+2      	; 0x2148 <Search+0x2ee>
    2146:	c9 ce       	rjmp	.-622    	; 0x1eda <Search+0x80>
    2148:	80 91 47 01 	lds	r24, 0x0147
    214c:	88 23       	and	r24, r24
    214e:	09 f0       	breq	.+2      	; 0x2152 <Search+0x2f8>
    2150:	5e cf       	rjmp	.-324    	; 0x200e <Search+0x1b4>
    2152:	8f ef       	ldi	r24, 0xFF	; 255
    2154:	88 16       	cp	r8, r24
    2156:	8f ef       	ldi	r24, 0xFF	; 255
    2158:	98 06       	cpc	r9, r24
    215a:	80 e0       	ldi	r24, 0x00	; 0
    215c:	a8 06       	cpc	r10, r24
    215e:	80 e0       	ldi	r24, 0x00	; 0
    2160:	b8 06       	cpc	r11, r24
    2162:	09 f0       	breq	.+2      	; 0x2166 <Search+0x30c>
    2164:	54 cf       	rjmp	.-344    	; 0x200e <Search+0x1b4>
    2166:	b9 ce       	rjmp	.-654    	; 0x1eda <Search+0x80>
				}
			}
		}
	}
	if(*Count==0)*Count=i;
    2168:	ee 81       	ldd	r30, Y+6	; 0x06
    216a:	ff 81       	ldd	r31, Y+7	; 0x07
    216c:	80 81       	ld	r24, Z
    216e:	91 81       	ldd	r25, Z+1	; 0x01
    2170:	89 2b       	or	r24, r25
    2172:	11 f4       	brne	.+4      	; 0x2178 <Search+0x31e>
    2174:	31 82       	std	Z+1, r3	; 0x01
    2176:	20 82       	st	Z, r2
	/*
	GUI_sprintf_chartohex(130,300,*type,0xffff,0x0000) ;
	GUI_sprintf_chartohex(160,300,i,0xffff,0x0000) ;
	GUI_sprintf_chartohex(190,300,*Count,0xffff,0x0000) ;
	while(1) ;*/
	return 0;	
    2178:	80 e0       	ldi	r24, 0x00	; 0
    217a:	90 e0       	ldi	r25, 0x00	; 0
    217c:	29 96       	adiw	r28, 0x09	; 9
    217e:	0f b6       	in	r0, 0x3f	; 63
    2180:	f8 94       	cli
    2182:	de bf       	out	0x3e, r29	; 62
    2184:	0f be       	out	0x3f, r0	; 63
    2186:	cd bf       	out	0x3d, r28	; 61
    2188:	df 91       	pop	r29
    218a:	cf 91       	pop	r28
    218c:	1f 91       	pop	r17
    218e:	0f 91       	pop	r16
    2190:	ff 90       	pop	r15
    2192:	ef 90       	pop	r14
    2194:	df 90       	pop	r13
    2196:	cf 90       	pop	r12
    2198:	bf 90       	pop	r11
    219a:	af 90       	pop	r10
    219c:	9f 90       	pop	r9
    219e:	8f 90       	pop	r8
    21a0:	7f 90       	pop	r7
    21a2:	6f 90       	pop	r6
    21a4:	5f 90       	pop	r5
    21a6:	3f 90       	pop	r3
    21a8:	2f 90       	pop	r2
    21aa:	08 95       	ret

000021ac <delay_us>:


void delay_us(unsigned int time)
 {     
   while (time--);
    21ac:	01 97       	sbiw	r24, 0x01	; 1
    21ae:	2f ef       	ldi	r18, 0xFF	; 255
    21b0:	8f 3f       	cpi	r24, 0xFF	; 255
    21b2:	92 07       	cpc	r25, r18
    21b4:	d9 f7       	brne	.-10     	; 0x21ac <delay_us>
    21b6:	08 95       	ret

000021b8 <delay_ms>:
 }		  

/*	    毫秒级延时函数	*/	 
void delay_ms(unsigned int time)
	 {
    21b8:	cf 93       	push	r28
    21ba:	df 93       	push	r29
	  while(time--) delay_us(100);  		 
    21bc:	ec 01       	movw	r28, r24
    21be:	21 97       	sbiw	r28, 0x01	; 1
    21c0:	8f ef       	ldi	r24, 0xFF	; 255
    21c2:	cf 3f       	cpi	r28, 0xFF	; 255
    21c4:	d8 07       	cpc	r29, r24
    21c6:	49 f0       	breq	.+18     	; 0x21da <delay_ms+0x22>
    21c8:	84 e6       	ldi	r24, 0x64	; 100
    21ca:	90 e0       	ldi	r25, 0x00	; 0
    21cc:	0e 94 d6 10 	call	0x21ac <delay_us>
    21d0:	21 97       	sbiw	r28, 0x01	; 1
    21d2:	8f ef       	ldi	r24, 0xFF	; 255
    21d4:	cf 3f       	cpi	r28, 0xFF	; 255
    21d6:	d8 07       	cpc	r29, r24
    21d8:	b9 f7       	brne	.-18     	; 0x21c8 <delay_ms+0x10>
    21da:	df 91       	pop	r29
    21dc:	cf 91       	pop	r28
    21de:	08 95       	ret

000021e0 <LCD_WR_DATA16>:
#include<lcd.h>
#include<delay.C>

void LCD_WR_DATA16(unsigned int data)//写积存器数据
{
    21e0:	0f 93       	push	r16
    21e2:	1f 93       	push	r17
    21e4:	8c 01       	movw	r16, r24
     LCD_RD_H();
    21e6:	df 9a       	sbi	0x1b, 7	; 27
	 LCD_RS_H();
    21e8:	de 9a       	sbi	0x1b, 6	; 27
     LCD_CS_L();  
    21ea:	dd 98       	cbi	0x1b, 5	; 27
     
	 
     DATA_LCD_PORT=data>>8;
    21ec:	81 2f       	mov	r24, r17
    21ee:	99 27       	eor	r25, r25
    21f0:	85 bb       	out	0x15, r24	; 21
	 
	 LCD_WR_L();
    21f2:	c3 9a       	sbi	0x18, 3	; 24
     delay_us(1);
    21f4:	81 e0       	ldi	r24, 0x01	; 1
    21f6:	90 e0       	ldi	r25, 0x00	; 0
    21f8:	0e 94 d6 10 	call	0x21ac <delay_us>
     LCD_WR_H();
    21fc:	c3 98       	cbi	0x18, 3	; 24
	 
	 DATA_LCD_PORT=data&0XFF; 
    21fe:	05 bb       	out	0x15, r16	; 21
     LCD_WR_L();
    2200:	c3 9a       	sbi	0x18, 3	; 24
	 delay_us(1);
    2202:	81 e0       	ldi	r24, 0x01	; 1
    2204:	90 e0       	ldi	r25, 0x00	; 0
    2206:	0e 94 d6 10 	call	0x21ac <delay_us>
     
	 delay_us(1);
    220a:	81 e0       	ldi	r24, 0x01	; 1
    220c:	90 e0       	ldi	r25, 0x00	; 0
    220e:	0e 94 d6 10 	call	0x21ac <delay_us>
     LCD_WR_H();
    2212:	c3 98       	cbi	0x18, 3	; 24
     LCD_CS_H();
    2214:	dd 9a       	sbi	0x1b, 5	; 27
    2216:	1f 91       	pop	r17
    2218:	0f 91       	pop	r16
    221a:	08 95       	ret

0000221c <LCD_WR_REG16>:
  
}
void LCD_WR_REG16(unsigned int index)//写积存器命令
{
    221c:	0f 93       	push	r16
    221e:	1f 93       	push	r17
    2220:	8c 01       	movw	r16, r24
     LCD_RD_H();
    2222:	df 9a       	sbi	0x1b, 7	; 27
	 LCD_RS_L();
    2224:	de 98       	cbi	0x1b, 6	; 27
     LCD_CS_L();
    2226:	dd 98       	cbi	0x1b, 5	; 27
	 
	 DATA_LCD_PORT=index>>8;   
    2228:	81 2f       	mov	r24, r17
    222a:	99 27       	eor	r25, r25
    222c:	85 bb       	out	0x15, r24	; 21
     LCD_WR_L();
    222e:	c3 9a       	sbi	0x18, 3	; 24
	 delay_us(1);
    2230:	81 e0       	ldi	r24, 0x01	; 1
    2232:	90 e0       	ldi	r25, 0x00	; 0
    2234:	0e 94 d6 10 	call	0x21ac <delay_us>
     
	 delay_us(1);
    2238:	81 e0       	ldi	r24, 0x01	; 1
    223a:	90 e0       	ldi	r25, 0x00	; 0
    223c:	0e 94 d6 10 	call	0x21ac <delay_us>
     LCD_WR_H();
    2240:	c3 98       	cbi	0x18, 3	; 24
	 
	 DATA_LCD_PORT=index&0XFF; 
    2242:	05 bb       	out	0x15, r16	; 21
     LCD_WR_L();
    2244:	c3 9a       	sbi	0x18, 3	; 24
	 delay_us(1);
    2246:	81 e0       	ldi	r24, 0x01	; 1
    2248:	90 e0       	ldi	r25, 0x00	; 0
    224a:	0e 94 d6 10 	call	0x21ac <delay_us>
     
	 delay_us(1);
    224e:	81 e0       	ldi	r24, 0x01	; 1
    2250:	90 e0       	ldi	r25, 0x00	; 0
    2252:	0e 94 d6 10 	call	0x21ac <delay_us>
     LCD_WR_H();
    2256:	c3 98       	cbi	0x18, 3	; 24
     LCD_CS_H();
    2258:	dd 9a       	sbi	0x1b, 5	; 27
    225a:	1f 91       	pop	r17
    225c:	0f 91       	pop	r16
    225e:	08 95       	ret

00002260 <LCD_WR_REG>:
}

void LCD_WR_REG(unsigned int index,unsigned int data)
{
    2260:	0f 93       	push	r16
    2262:	1f 93       	push	r17
    2264:	8b 01       	movw	r16, r22
     LCD_WR_REG16(index);
    2266:	0e 94 0e 11 	call	0x221c <LCD_WR_REG16>
     LCD_WR_DATA16(data);
    226a:	c8 01       	movw	r24, r16
    226c:	0e 94 f0 10 	call	0x21e0 <LCD_WR_DATA16>
    2270:	1f 91       	pop	r17
    2272:	0f 91       	pop	r16
    2274:	08 95       	ret

00002276 <LCD_Clear>:
}
void LCD_Init(void)
{
	     LCD_PORT_INI();
	     LCD_RST_L();//硬件复位
delay_ms(2000); 	   
	     LCD_RST_H();
	//initializing funciton 1 
		 //LCD_WR_REG(0x00E5,0x8000);        
	    // LCD_WR_REG(0x00E7,0x0012);
	    //LCD_WR_REG(0x00Ef,0x1231); 	// Set the internal timing;    
		 LCD_WR_REG(0xe5,0x8000); 
         LCD_WR_REG(0x00, 0x0001);
		 delay_ms(200); 
         LCD_WR_REG(0x01, 0x0000); // set SS and SM bit
         LCD_WR_REG(0x02, 0x0700); // set 1 line inversion
        // LCD_WR_REG(0x03, 0x10B0); // set GRAM write direction and BGR=1.
#if   ID_AM==000       
	     LCD_WR_REG(0x0003,0x1000);//屏幕旋转控制 TFM=0,TRI=0,SWAP=1,16 bits system interface  swap RGB to BRG，此处ORG和HWM 为0
#elif ID_AM==001        
	     LCD_WR_REG(0x0003,0x1008);      
#elif ID_AM==010  
	     LCD_WR_REG(0x0003,0x1010);        
#elif ID_AM==011
	     LCD_WR_REG(0x0003,0x1018);
#elif ID_AM==100  
	     LCD_WR_REG(0x0003,0x1020);      
#elif ID_AM==101  
	     LCD_WR_REG(0x0003,0x1028);      
#elif ID_AM==110  
	     LCD_WR_REG(0x0003,0x1030);      
#elif ID_AM==111  
	     LCD_WR_REG(0x0003,0x1038);
#endif    
         LCD_WR_REG(0x04, 0x0000); // Resize register
         LCD_WR_REG(0x08, 0x0404); // set the back porch and front porch
         LCD_WR_REG(0x09, 0x0000); // set non-display area refresh cycle ISC[3:0]
         LCD_WR_REG(0x0A, 0x0000); // FMARK function
         LCD_WR_REG(0x0C, 0x0000); // RGB interface setting
         LCD_WR_REG(0x0D, 0x0000); // Frame marker Position
         LCD_WR_REG(0x0F, 0x0000); // RGB interface polarity
//Power On sequence //
         LCD_WR_REG(0x10, 0x0000); // SAP, BT[3:0], AP, DSTB, SLP, STB
         LCD_WR_REG(0x11, 0x0000); // DC1[2:0], DC0[2:0], VC[2:0]
         LCD_WR_REG(0x12, 0x0000); // VREG1OUT voltage
         LCD_WR_REG(0x13, 0x0000); // VDV[4:0] for VCOM amplitude
//	 LCD_WR_REG(0x07, 0x0001); // 
		 
         delay_ms(1000); // Dis-charge capacitor power voltage
         
         LCD_WR_REG(0x10, 0x1590); // SAP, BT[3:0], AP, DSTB, SLP, STB
         LCD_WR_REG(0x11, 0x0337); // DC1[2:0], DC0[2:0], VC[2:0]
         delay_ms(1000); // Delay 50ms
        
         LCD_WR_REG(0x12, 0x0028); // Internal reference voltage= Vci;
         delay_ms(1000); // Delay 50ms
         LCD_WR_REG(0x13, 0x1600); // Set VDV[4:0] for VCOM amplitude
         LCD_WR_REG(0x29, 0x002a); // Set VCM[5:0] for VCOMH
         LCD_WR_REG(0x2B, 0x000d); // Set Frame Rate
         delay_ms(1000); // Delay 50ms
         
#if   ID_AM==000         
	     LCD_WR_REG(0x0020,0x00ef);//GRAM水平起始位置
	     LCD_WR_REG(0x0021,0x013f);      
#elif ID_AM==001
	     LCD_WR_REG(0x0020,0x00ef);
	     LCD_WR_REG(0x0021,0x013f);      
#elif ID_AM==010
	     LCD_WR_REG(0x0020,0x0000);
	     LCD_WR_REG(0x0021,0x013f);      
#elif ID_AM==011
	     LCD_WR_REG(0x0020,0x0000);
	     LCD_WR_REG(0x0021,0x013f);       
#elif ID_AM==100
	     LCD_WR_REG(0x0020,0x00ef);
	     LCD_WR_REG(0x0021,0x0000);      
#elif ID_AM==101  
	     LCD_WR_REG(0x0020,0x00ef);
	     LCD_WR_REG(0x0021,0x0000);      
#elif ID_AM==110
	     LCD_WR_REG(0x0020,0x0000);
	     LCD_WR_REG(0x0021,0x0000);      
#elif ID_AM==111
	     LCD_WR_REG(0x0020,0x0000);
	     LCD_WR_REG(0x0021,0x0000);         
#endif  
// ----------- Adjust the Gamma Curve ----------//

        LCD_WR_REG(0x0030, 0x0101);
	     LCD_WR_REG(0x0031, 0x0506);
	     LCD_WR_REG(0x0032, 0x0101);
	     LCD_WR_REG(0x0035, 0x0204);
	     LCD_WR_REG(0x0036, 0x0707);
	     LCD_WR_REG(0x0037, 0x0707);
	     LCD_WR_REG(0x0038, 0x0406);
	     LCD_WR_REG(0x0039, 0x0707);
	     LCD_WR_REG(0x003C, 0x0402);
	     LCD_WR_REG(0x003D, 0x0707);
/*	
	LCD_WR_REG(0x0030,0x0000);
	LCD_WR_REG(0x0031,0x0507);
	LCD_WR_REG(0x0032,0x0104);
	LCD_WR_REG(0x0035,0x0105);
	LCD_WR_REG(0x0036,0x0404);
	LCD_WR_REG(0x0037,0x0603);
	LCD_WR_REG(0x0038,0x0104);
	LCD_WR_REG(0x0039,0x0107);
	LCD_WR_REG(0x003c,0x0501);
	LCD_WR_REG(0x003d,0x0707);
 */
		 
//------------------ Set GRAM area ---------------//
         LCD_WR_REG(0x0050, 0x0000); // Horizontal GRAM Start Address
         LCD_WR_REG(0x0051, 0x00EF); // Horizontal GRAM End Address
         LCD_WR_REG(0x0052, 0x0000); // Vertical GRAM Start Address
         LCD_WR_REG(0x0053, 0x013F); // Vertical GRAM Start Address
         LCD_WR_REG(0x0060, 0x2700); // Gate Scan Line
         LCD_WR_REG(0x0061, 0x0001); // NDL,VLE, REV
         LCD_WR_REG(0x006A, 0x0000); // set scrolling line
//-------------- Partial Display Control ---------//

//-------------- Panel Control -------------------//
         LCD_WR_REG(0x90, 0x0010);
         LCD_WR_REG(0x92, 0x0000);
         LCD_WR_REG(0x93, 0x0003);
         LCD_WR_REG(0x95, 0x0110);
         LCD_WR_REG(0x97, 0x0000);
         LCD_WR_REG(0x98, 0x0000);

		 
		// LCD_WR_REG(0x07, 0x0031); // 262K color and display ON   0133
		 delay_ms(500); // Delay 5ms
		 
         LCD_WR_REG(0x07, 0x0173); // 262K color and display ON   0133
		 LCD_Clear(0);
		 delay_ms(500); // Delay 5ms
		 
		 LCD_BL_H();
  
}


/**********************************************
函数名：Lcd全屏擦除函数
功能：将Lcd整屏擦为指定颜色
入口参数：color 指定Lcd全屏颜色 RGB(5-6-5)
返回值：无
***********************************************/
void LCD_Clear(unsigned int Color)
{
    2276:	cf 93       	push	r28
    2278:	df 93       	push	r29
    227a:	ec 01       	movw	r28, r24
  unsigned long index = 0;
  
  LCD_WR_REG(0x0020,0x0000);//GRAM水平起始位置
    227c:	60 e0       	ldi	r22, 0x00	; 0
    227e:	70 e0       	ldi	r23, 0x00	; 0
    2280:	80 e2       	ldi	r24, 0x20	; 32
    2282:	90 e0       	ldi	r25, 0x00	; 0
    2284:	0e 94 30 11 	call	0x2260 <LCD_WR_REG>
  LCD_WR_REG(0x0021,00000);      
    2288:	60 e0       	ldi	r22, 0x00	; 0
    228a:	70 e0       	ldi	r23, 0x00	; 0
    228c:	81 e2       	ldi	r24, 0x21	; 33
    228e:	90 e0       	ldi	r25, 0x00	; 0
    2290:	0e 94 30 11 	call	0x2260 <LCD_WR_REG>

  LCD_WR_REG(0x0050,0x00);//水平 GRAM起始位置
    2294:	60 e0       	ldi	r22, 0x00	; 0
    2296:	70 e0       	ldi	r23, 0x00	; 0
    2298:	80 e5       	ldi	r24, 0x50	; 80
    229a:	90 e0       	ldi	r25, 0x00	; 0
    229c:	0e 94 30 11 	call	0x2260 <LCD_WR_REG>
  LCD_WR_REG(0x0051,239);//水平GRAM终止位置
    22a0:	6f ee       	ldi	r22, 0xEF	; 239
    22a2:	70 e0       	ldi	r23, 0x00	; 0
    22a4:	81 e5       	ldi	r24, 0x51	; 81
    22a6:	90 e0       	ldi	r25, 0x00	; 0
    22a8:	0e 94 30 11 	call	0x2260 <LCD_WR_REG>
  LCD_WR_REG(0x0052,0x00);//垂直GRAM起始位置
    22ac:	60 e0       	ldi	r22, 0x00	; 0
    22ae:	70 e0       	ldi	r23, 0x00	; 0
    22b0:	82 e5       	ldi	r24, 0x52	; 82
    22b2:	90 e0       	ldi	r25, 0x00	; 0
    22b4:	0e 94 30 11 	call	0x2260 <LCD_WR_REG>
  LCD_WR_REG(0x0053,319);//垂直GRAM终止位置 
    22b8:	6f e3       	ldi	r22, 0x3F	; 63
    22ba:	71 e0       	ldi	r23, 0x01	; 1
    22bc:	83 e5       	ldi	r24, 0x53	; 83
    22be:	90 e0       	ldi	r25, 0x00	; 0
    22c0:	0e 94 30 11 	call	0x2260 <LCD_WR_REG>
  LCD_WR_REG16(0x0022);
    22c4:	82 e2       	ldi	r24, 0x22	; 34
    22c6:	90 e0       	ldi	r25, 0x00	; 0
    22c8:	0e 94 0e 11 	call	0x221c <LCD_WR_REG16>
  
  LCD_RD_H();
    22cc:	df 9a       	sbi	0x1b, 7	; 27
  LCD_RS_H();
    22ce:	de 9a       	sbi	0x1b, 6	; 27
  LCD_CS_L();   
    22d0:	dd 98       	cbi	0x1b, 5	; 27
    22d2:	2d 2f       	mov	r18, r29
    22d4:	33 27       	eor	r19, r19
    22d6:	8f ef       	ldi	r24, 0xFF	; 255
    22d8:	9b e2       	ldi	r25, 0x2B	; 43
    22da:	a1 e0       	ldi	r26, 0x01	; 1
    22dc:	b0 e0       	ldi	r27, 0x00	; 0
  for(index = 0; index < 76800; index++)
  {
   // LCD_WR_DATA16(Color);
 
     LCD_WR_L();
    22de:	c3 9a       	sbi	0x18, 3	; 24
     DATA_LCD_PORT=Color>>8; 
    22e0:	25 bb       	out	0x15, r18	; 21
     LCD_WR_H();
    22e2:	c3 98       	cbi	0x18, 3	; 24
     LCD_WR_L();
    22e4:	c3 9a       	sbi	0x18, 3	; 24
     DATA_LCD_PORT=Color&0XFF; 
    22e6:	c5 bb       	out	0x15, r28	; 21
     LCD_WR_H();
    22e8:	c3 98       	cbi	0x18, 3	; 24
    22ea:	01 97       	sbiw	r24, 0x01	; 1
    22ec:	a1 09       	sbc	r26, r1
    22ee:	b1 09       	sbc	r27, r1
    22f0:	b7 ff       	sbrs	r27, 7
    22f2:	f5 cf       	rjmp	.-22     	; 0x22de <LCD_Clear+0x68>
 
   
  } 
   LCD_CS_H();
    22f4:	dd 9a       	sbi	0x1b, 5	; 27
    22f6:	df 91       	pop	r29
    22f8:	cf 91       	pop	r28
    22fa:	08 95       	ret

000022fc <LCD_Init>:
    22fc:	8f 9a       	sbi	0x11, 7	; 17
    22fe:	d5 9a       	sbi	0x1a, 5	; 26
    2300:	d6 9a       	sbi	0x1a, 6	; 26
    2302:	bb 9a       	sbi	0x17, 3	; 23
    2304:	d7 9a       	sbi	0x1a, 7	; 26
    2306:	8c 9a       	sbi	0x11, 4	; 17
    2308:	94 98       	cbi	0x12, 4	; 18
    230a:	80 ed       	ldi	r24, 0xD0	; 208
    230c:	97 e0       	ldi	r25, 0x07	; 7
    230e:	0e 94 dc 10 	call	0x21b8 <delay_ms>
    2312:	94 9a       	sbi	0x12, 4	; 18
    2314:	60 e0       	ldi	r22, 0x00	; 0
    2316:	70 e8       	ldi	r23, 0x80	; 128
    2318:	85 ee       	ldi	r24, 0xE5	; 229
    231a:	90 e0       	ldi	r25, 0x00	; 0
    231c:	0e 94 30 11 	call	0x2260 <LCD_WR_REG>
    2320:	61 e0       	ldi	r22, 0x01	; 1
    2322:	70 e0       	ldi	r23, 0x00	; 0
    2324:	80 e0       	ldi	r24, 0x00	; 0
    2326:	90 e0       	ldi	r25, 0x00	; 0
    2328:	0e 94 30 11 	call	0x2260 <LCD_WR_REG>
    232c:	88 ec       	ldi	r24, 0xC8	; 200
    232e:	90 e0       	ldi	r25, 0x00	; 0
    2330:	0e 94 dc 10 	call	0x21b8 <delay_ms>
    2334:	60 e0       	ldi	r22, 0x00	; 0
    2336:	70 e0       	ldi	r23, 0x00	; 0
    2338:	81 e0       	ldi	r24, 0x01	; 1
    233a:	90 e0       	ldi	r25, 0x00	; 0
    233c:	0e 94 30 11 	call	0x2260 <LCD_WR_REG>
    2340:	60 e0       	ldi	r22, 0x00	; 0
    2342:	77 e0       	ldi	r23, 0x07	; 7
    2344:	82 e0       	ldi	r24, 0x02	; 2
    2346:	90 e0       	ldi	r25, 0x00	; 0
    2348:	0e 94 30 11 	call	0x2260 <LCD_WR_REG>
    234c:	68 e1       	ldi	r22, 0x18	; 24
    234e:	70 e1       	ldi	r23, 0x10	; 16
    2350:	83 e0       	ldi	r24, 0x03	; 3
    2352:	90 e0       	ldi	r25, 0x00	; 0
    2354:	0e 94 30 11 	call	0x2260 <LCD_WR_REG>
    2358:	60 e0       	ldi	r22, 0x00	; 0
    235a:	70 e0       	ldi	r23, 0x00	; 0
    235c:	84 e0       	ldi	r24, 0x04	; 4
    235e:	90 e0       	ldi	r25, 0x00	; 0
    2360:	0e 94 30 11 	call	0x2260 <LCD_WR_REG>
    2364:	64 e0       	ldi	r22, 0x04	; 4
    2366:	74 e0       	ldi	r23, 0x04	; 4
    2368:	88 e0       	ldi	r24, 0x08	; 8
    236a:	90 e0       	ldi	r25, 0x00	; 0
    236c:	0e 94 30 11 	call	0x2260 <LCD_WR_REG>
    2370:	60 e0       	ldi	r22, 0x00	; 0
    2372:	70 e0       	ldi	r23, 0x00	; 0
    2374:	89 e0       	ldi	r24, 0x09	; 9
    2376:	90 e0       	ldi	r25, 0x00	; 0
    2378:	0e 94 30 11 	call	0x2260 <LCD_WR_REG>
    237c:	60 e0       	ldi	r22, 0x00	; 0
    237e:	70 e0       	ldi	r23, 0x00	; 0
    2380:	8a e0       	ldi	r24, 0x0A	; 10
    2382:	90 e0       	ldi	r25, 0x00	; 0
    2384:	0e 94 30 11 	call	0x2260 <LCD_WR_REG>
    2388:	60 e0       	ldi	r22, 0x00	; 0
    238a:	70 e0       	ldi	r23, 0x00	; 0
    238c:	8c e0       	ldi	r24, 0x0C	; 12
    238e:	90 e0       	ldi	r25, 0x00	; 0
    2390:	0e 94 30 11 	call	0x2260 <LCD_WR_REG>
    2394:	60 e0       	ldi	r22, 0x00	; 0
    2396:	70 e0       	ldi	r23, 0x00	; 0
    2398:	8d e0       	ldi	r24, 0x0D	; 13
    239a:	90 e0       	ldi	r25, 0x00	; 0
    239c:	0e 94 30 11 	call	0x2260 <LCD_WR_REG>
    23a0:	60 e0       	ldi	r22, 0x00	; 0
    23a2:	70 e0       	ldi	r23, 0x00	; 0
    23a4:	8f e0       	ldi	r24, 0x0F	; 15
    23a6:	90 e0       	ldi	r25, 0x00	; 0
    23a8:	0e 94 30 11 	call	0x2260 <LCD_WR_REG>
    23ac:	60 e0       	ldi	r22, 0x00	; 0
    23ae:	70 e0       	ldi	r23, 0x00	; 0
    23b0:	80 e1       	ldi	r24, 0x10	; 16
    23b2:	90 e0       	ldi	r25, 0x00	; 0
    23b4:	0e 94 30 11 	call	0x2260 <LCD_WR_REG>
    23b8:	60 e0       	ldi	r22, 0x00	; 0
    23ba:	70 e0       	ldi	r23, 0x00	; 0
    23bc:	81 e1       	ldi	r24, 0x11	; 17
    23be:	90 e0       	ldi	r25, 0x00	; 0
    23c0:	0e 94 30 11 	call	0x2260 <LCD_WR_REG>
    23c4:	60 e0       	ldi	r22, 0x00	; 0
    23c6:	70 e0       	ldi	r23, 0x00	; 0
    23c8:	82 e1       	ldi	r24, 0x12	; 18
    23ca:	90 e0       	ldi	r25, 0x00	; 0
    23cc:	0e 94 30 11 	call	0x2260 <LCD_WR_REG>
    23d0:	60 e0       	ldi	r22, 0x00	; 0
    23d2:	70 e0       	ldi	r23, 0x00	; 0
    23d4:	83 e1       	ldi	r24, 0x13	; 19
    23d6:	90 e0       	ldi	r25, 0x00	; 0
    23d8:	0e 94 30 11 	call	0x2260 <LCD_WR_REG>
    23dc:	88 ee       	ldi	r24, 0xE8	; 232
    23de:	93 e0       	ldi	r25, 0x03	; 3
    23e0:	0e 94 dc 10 	call	0x21b8 <delay_ms>
    23e4:	60 e9       	ldi	r22, 0x90	; 144
    23e6:	75 e1       	ldi	r23, 0x15	; 21
    23e8:	80 e1       	ldi	r24, 0x10	; 16
    23ea:	90 e0       	ldi	r25, 0x00	; 0
    23ec:	0e 94 30 11 	call	0x2260 <LCD_WR_REG>
    23f0:	67 e3       	ldi	r22, 0x37	; 55
    23f2:	73 e0       	ldi	r23, 0x03	; 3
    23f4:	81 e1       	ldi	r24, 0x11	; 17
    23f6:	90 e0       	ldi	r25, 0x00	; 0
    23f8:	0e 94 30 11 	call	0x2260 <LCD_WR_REG>
    23fc:	88 ee       	ldi	r24, 0xE8	; 232
    23fe:	93 e0       	ldi	r25, 0x03	; 3
    2400:	0e 94 dc 10 	call	0x21b8 <delay_ms>
    2404:	68 e2       	ldi	r22, 0x28	; 40
    2406:	70 e0       	ldi	r23, 0x00	; 0
    2408:	82 e1       	ldi	r24, 0x12	; 18
    240a:	90 e0       	ldi	r25, 0x00	; 0
    240c:	0e 94 30 11 	call	0x2260 <LCD_WR_REG>
    2410:	88 ee       	ldi	r24, 0xE8	; 232
    2412:	93 e0       	ldi	r25, 0x03	; 3
    2414:	0e 94 dc 10 	call	0x21b8 <delay_ms>
    2418:	60 e0       	ldi	r22, 0x00	; 0
    241a:	76 e1       	ldi	r23, 0x16	; 22
    241c:	83 e1       	ldi	r24, 0x13	; 19
    241e:	90 e0       	ldi	r25, 0x00	; 0
    2420:	0e 94 30 11 	call	0x2260 <LCD_WR_REG>
    2424:	6a e2       	ldi	r22, 0x2A	; 42
    2426:	70 e0       	ldi	r23, 0x00	; 0
    2428:	89 e2       	ldi	r24, 0x29	; 41
    242a:	90 e0       	ldi	r25, 0x00	; 0
    242c:	0e 94 30 11 	call	0x2260 <LCD_WR_REG>
    2430:	6d e0       	ldi	r22, 0x0D	; 13
    2432:	70 e0       	ldi	r23, 0x00	; 0
    2434:	8b e2       	ldi	r24, 0x2B	; 43
    2436:	90 e0       	ldi	r25, 0x00	; 0
    2438:	0e 94 30 11 	call	0x2260 <LCD_WR_REG>
    243c:	88 ee       	ldi	r24, 0xE8	; 232
    243e:	93 e0       	ldi	r25, 0x03	; 3
    2440:	0e 94 dc 10 	call	0x21b8 <delay_ms>
    2444:	60 e0       	ldi	r22, 0x00	; 0
    2446:	70 e0       	ldi	r23, 0x00	; 0
    2448:	80 e2       	ldi	r24, 0x20	; 32
    244a:	90 e0       	ldi	r25, 0x00	; 0
    244c:	0e 94 30 11 	call	0x2260 <LCD_WR_REG>
    2450:	6f e3       	ldi	r22, 0x3F	; 63
    2452:	71 e0       	ldi	r23, 0x01	; 1
    2454:	81 e2       	ldi	r24, 0x21	; 33
    2456:	90 e0       	ldi	r25, 0x00	; 0
    2458:	0e 94 30 11 	call	0x2260 <LCD_WR_REG>
    245c:	61 e0       	ldi	r22, 0x01	; 1
    245e:	71 e0       	ldi	r23, 0x01	; 1
    2460:	80 e3       	ldi	r24, 0x30	; 48
    2462:	90 e0       	ldi	r25, 0x00	; 0
    2464:	0e 94 30 11 	call	0x2260 <LCD_WR_REG>
    2468:	66 e0       	ldi	r22, 0x06	; 6
    246a:	75 e0       	ldi	r23, 0x05	; 5
    246c:	81 e3       	ldi	r24, 0x31	; 49
    246e:	90 e0       	ldi	r25, 0x00	; 0
    2470:	0e 94 30 11 	call	0x2260 <LCD_WR_REG>
    2474:	61 e0       	ldi	r22, 0x01	; 1
    2476:	71 e0       	ldi	r23, 0x01	; 1
    2478:	82 e3       	ldi	r24, 0x32	; 50
    247a:	90 e0       	ldi	r25, 0x00	; 0
    247c:	0e 94 30 11 	call	0x2260 <LCD_WR_REG>
    2480:	64 e0       	ldi	r22, 0x04	; 4
    2482:	72 e0       	ldi	r23, 0x02	; 2
    2484:	85 e3       	ldi	r24, 0x35	; 53
    2486:	90 e0       	ldi	r25, 0x00	; 0
    2488:	0e 94 30 11 	call	0x2260 <LCD_WR_REG>
    248c:	67 e0       	ldi	r22, 0x07	; 7
    248e:	77 e0       	ldi	r23, 0x07	; 7
    2490:	86 e3       	ldi	r24, 0x36	; 54
    2492:	90 e0       	ldi	r25, 0x00	; 0
    2494:	0e 94 30 11 	call	0x2260 <LCD_WR_REG>
    2498:	67 e0       	ldi	r22, 0x07	; 7
    249a:	77 e0       	ldi	r23, 0x07	; 7
    249c:	87 e3       	ldi	r24, 0x37	; 55
    249e:	90 e0       	ldi	r25, 0x00	; 0
    24a0:	0e 94 30 11 	call	0x2260 <LCD_WR_REG>
    24a4:	66 e0       	ldi	r22, 0x06	; 6
    24a6:	74 e0       	ldi	r23, 0x04	; 4
    24a8:	88 e3       	ldi	r24, 0x38	; 56
    24aa:	90 e0       	ldi	r25, 0x00	; 0
    24ac:	0e 94 30 11 	call	0x2260 <LCD_WR_REG>
    24b0:	67 e0       	ldi	r22, 0x07	; 7
    24b2:	77 e0       	ldi	r23, 0x07	; 7
    24b4:	89 e3       	ldi	r24, 0x39	; 57
    24b6:	90 e0       	ldi	r25, 0x00	; 0
    24b8:	0e 94 30 11 	call	0x2260 <LCD_WR_REG>
    24bc:	62 e0       	ldi	r22, 0x02	; 2
    24be:	74 e0       	ldi	r23, 0x04	; 4
    24c0:	8c e3       	ldi	r24, 0x3C	; 60
    24c2:	90 e0       	ldi	r25, 0x00	; 0
    24c4:	0e 94 30 11 	call	0x2260 <LCD_WR_REG>
    24c8:	67 e0       	ldi	r22, 0x07	; 7
    24ca:	77 e0       	ldi	r23, 0x07	; 7
    24cc:	8d e3       	ldi	r24, 0x3D	; 61
    24ce:	90 e0       	ldi	r25, 0x00	; 0
    24d0:	0e 94 30 11 	call	0x2260 <LCD_WR_REG>
    24d4:	60 e0       	ldi	r22, 0x00	; 0
    24d6:	70 e0       	ldi	r23, 0x00	; 0
    24d8:	80 e5       	ldi	r24, 0x50	; 80
    24da:	90 e0       	ldi	r25, 0x00	; 0
    24dc:	0e 94 30 11 	call	0x2260 <LCD_WR_REG>
    24e0:	6f ee       	ldi	r22, 0xEF	; 239
    24e2:	70 e0       	ldi	r23, 0x00	; 0
    24e4:	81 e5       	ldi	r24, 0x51	; 81
    24e6:	90 e0       	ldi	r25, 0x00	; 0
    24e8:	0e 94 30 11 	call	0x2260 <LCD_WR_REG>
    24ec:	60 e0       	ldi	r22, 0x00	; 0
    24ee:	70 e0       	ldi	r23, 0x00	; 0
    24f0:	82 e5       	ldi	r24, 0x52	; 82
    24f2:	90 e0       	ldi	r25, 0x00	; 0
    24f4:	0e 94 30 11 	call	0x2260 <LCD_WR_REG>
    24f8:	6f e3       	ldi	r22, 0x3F	; 63
    24fa:	71 e0       	ldi	r23, 0x01	; 1
    24fc:	83 e5       	ldi	r24, 0x53	; 83
    24fe:	90 e0       	ldi	r25, 0x00	; 0
    2500:	0e 94 30 11 	call	0x2260 <LCD_WR_REG>
    2504:	60 e0       	ldi	r22, 0x00	; 0
    2506:	77 e2       	ldi	r23, 0x27	; 39
    2508:	80 e6       	ldi	r24, 0x60	; 96
    250a:	90 e0       	ldi	r25, 0x00	; 0
    250c:	0e 94 30 11 	call	0x2260 <LCD_WR_REG>
    2510:	61 e0       	ldi	r22, 0x01	; 1
    2512:	70 e0       	ldi	r23, 0x00	; 0
    2514:	81 e6       	ldi	r24, 0x61	; 97
    2516:	90 e0       	ldi	r25, 0x00	; 0
    2518:	0e 94 30 11 	call	0x2260 <LCD_WR_REG>
    251c:	60 e0       	ldi	r22, 0x00	; 0
    251e:	70 e0       	ldi	r23, 0x00	; 0
    2520:	8a e6       	ldi	r24, 0x6A	; 106
    2522:	90 e0       	ldi	r25, 0x00	; 0
    2524:	0e 94 30 11 	call	0x2260 <LCD_WR_REG>
    2528:	60 e1       	ldi	r22, 0x10	; 16
    252a:	70 e0       	ldi	r23, 0x00	; 0
    252c:	80 e9       	ldi	r24, 0x90	; 144
    252e:	90 e0       	ldi	r25, 0x00	; 0
    2530:	0e 94 30 11 	call	0x2260 <LCD_WR_REG>
    2534:	60 e0       	ldi	r22, 0x00	; 0
    2536:	70 e0       	ldi	r23, 0x00	; 0
    2538:	82 e9       	ldi	r24, 0x92	; 146
    253a:	90 e0       	ldi	r25, 0x00	; 0
    253c:	0e 94 30 11 	call	0x2260 <LCD_WR_REG>
    2540:	63 e0       	ldi	r22, 0x03	; 3
    2542:	70 e0       	ldi	r23, 0x00	; 0
    2544:	83 e9       	ldi	r24, 0x93	; 147
    2546:	90 e0       	ldi	r25, 0x00	; 0
    2548:	0e 94 30 11 	call	0x2260 <LCD_WR_REG>
    254c:	60 e1       	ldi	r22, 0x10	; 16
    254e:	71 e0       	ldi	r23, 0x01	; 1
    2550:	85 e9       	ldi	r24, 0x95	; 149
    2552:	90 e0       	ldi	r25, 0x00	; 0
    2554:	0e 94 30 11 	call	0x2260 <LCD_WR_REG>
    2558:	60 e0       	ldi	r22, 0x00	; 0
    255a:	70 e0       	ldi	r23, 0x00	; 0
    255c:	87 e9       	ldi	r24, 0x97	; 151
    255e:	90 e0       	ldi	r25, 0x00	; 0
    2560:	0e 94 30 11 	call	0x2260 <LCD_WR_REG>
    2564:	60 e0       	ldi	r22, 0x00	; 0
    2566:	70 e0       	ldi	r23, 0x00	; 0
    2568:	88 e9       	ldi	r24, 0x98	; 152
    256a:	90 e0       	ldi	r25, 0x00	; 0
    256c:	0e 94 30 11 	call	0x2260 <LCD_WR_REG>
    2570:	84 ef       	ldi	r24, 0xF4	; 244
    2572:	91 e0       	ldi	r25, 0x01	; 1
    2574:	0e 94 dc 10 	call	0x21b8 <delay_ms>
    2578:	63 e7       	ldi	r22, 0x73	; 115
    257a:	71 e0       	ldi	r23, 0x01	; 1
    257c:	87 e0       	ldi	r24, 0x07	; 7
    257e:	90 e0       	ldi	r25, 0x00	; 0
    2580:	0e 94 30 11 	call	0x2260 <LCD_WR_REG>
    2584:	80 e0       	ldi	r24, 0x00	; 0
    2586:	90 e0       	ldi	r25, 0x00	; 0
    2588:	0e 94 3b 11 	call	0x2276 <LCD_Clear>
    258c:	84 ef       	ldi	r24, 0xF4	; 244
    258e:	91 e0       	ldi	r25, 0x01	; 1
    2590:	0e 94 dc 10 	call	0x21b8 <delay_ms>
    2594:	97 9a       	sbi	0x12, 7	; 18
    2596:	08 95       	ret

00002598 <LCD_write_english>:
}

void LCD_write_english(unsigned char data,unsigned int color,unsigned int xcolor)//写字符
{
    2598:	bf 92       	push	r11
    259a:	cf 92       	push	r12
    259c:	df 92       	push	r13
    259e:	ef 92       	push	r14
    25a0:	ff 92       	push	r15
    25a2:	0f 93       	push	r16
    25a4:	1f 93       	push	r17
    25a6:	cf 93       	push	r28
    25a8:	b8 2e       	mov	r11, r24
    25aa:	6b 01       	movw	r12, r22
    25ac:	7a 01       	movw	r14, r20

  unsigned char avl,i,n;
   LCD_WR_REG16(0x0022);  
    25ae:	82 e2       	ldi	r24, 0x22	; 34
    25b0:	90 e0       	ldi	r25, 0x00	; 0
    25b2:	0e 94 0e 11 	call	0x221c <LCD_WR_REG16>
  for (i=0;i<16;i++)
    25b6:	00 e0       	ldi	r16, 0x00	; 0
  { 
      avl=pgm_read_byte( &english[data-32][i]);
    25b8:	eb 2d       	mov	r30, r11
    25ba:	ff 27       	eor	r31, r31
    25bc:	34 e0       	ldi	r19, 0x04	; 4
    25be:	ee 0f       	add	r30, r30
    25c0:	ff 1f       	adc	r31, r31
    25c2:	3a 95       	dec	r19
    25c4:	e1 f7       	brne	.-8      	; 0x25be <LCD_write_english+0x26>
    25c6:	e0 0f       	add	r30, r16
    25c8:	f1 1d       	adc	r31, r1
    25ca:	ec 54       	subi	r30, 0x4C	; 76
    25cc:	f0 40       	sbci	r31, 0x00	; 0
    25ce:	c4 91       	lpm	r28, Z
    25d0:	17 e0       	ldi	r17, 0x07	; 7
	  for (n=0;n<8;n++)
	   {
	     if(avl&0x80) LCD_WR_DATA16(color);
    25d2:	c7 ff       	sbrs	r28, 7
    25d4:	02 c0       	rjmp	.+4      	; 0x25da <LCD_write_english+0x42>
    25d6:	c6 01       	movw	r24, r12
    25d8:	01 c0       	rjmp	.+2      	; 0x25dc <LCD_write_english+0x44>
             else LCD_WR_DATA16(xcolor);
    25da:	c7 01       	movw	r24, r14
    25dc:	0e 94 f0 10 	call	0x21e0 <LCD_WR_DATA16>
           
	     avl<<=1;
    25e0:	cc 0f       	add	r28, r28
    25e2:	11 50       	subi	r17, 0x01	; 1
    25e4:	17 ff       	sbrs	r17, 7
    25e6:	f5 cf       	rjmp	.-22     	; 0x25d2 <LCD_write_english+0x3a>
    25e8:	0f 5f       	subi	r16, 0xFF	; 255
    25ea:	00 31       	cpi	r16, 0x10	; 16
    25ec:	28 f3       	brcs	.-54     	; 0x25b8 <LCD_write_english+0x20>
    25ee:	cf 91       	pop	r28
    25f0:	1f 91       	pop	r17
    25f2:	0f 91       	pop	r16
    25f4:	ff 90       	pop	r15
    25f6:	ef 90       	pop	r14
    25f8:	df 90       	pop	r13
    25fa:	cf 90       	pop	r12
    25fc:	bf 90       	pop	r11
    25fe:	08 95       	ret

00002600 <LCD_SetCursor>:
	   }
	}
}
void LCD_write_english_string(unsigned int x,unsigned int y,unsigned char *s,unsigned int color,unsigned int xcolor)//英文字符串显示
{
 unsigned int k=0;
 while (*s) 
  {
     Lcd_SetBox(y,x+k,15,8);
     LCD_write_english( *s,color,xcolor);
     k=k+8;
     s++;
  
  }

}  

void LCD_write_SUM(unsigned int x,unsigned int y,unsigned char SUM,unsigned int color,unsigned int xcolor)//写数字
{

  unsigned char avl,i,n;
   Lcd_SetBox(y,x,15,8);
   LCD_WR_REG16(0x0022);  
  for (i=0;i<16;i++)
  { 
      avl=pgm_read_byte( &english[SUM+16][i]);
	  for (n=0;n<8;n++)
	   {
	     if(avl&0x80) LCD_WR_DATA16(color);
             else LCD_WR_DATA16(xcolor);
           
	     avl<<=1;
	   }
	}
}
/**********************************************
函数名：Lcd块选函数
功能：选定Lcd上指定的矩形区域

注意：xStart和 yStart随着屏幕的旋转而改变，位置是矩形框的四个角

入口参数：xStart x方向的起始点
          ySrart y方向的终止点
          xLong 要选定矩形的x方向长度
          yLong  要选定矩形的y方向长度
返回值：无
***********************************************/
void Lcd_SetBox(unsigned int xStart,unsigned int yStart,unsigned int xLong,unsigned int yLong)
{
  
#if ID_AM==000    
	LCD_SetCursor(xStart+xLong-1,312-yStart+yLong-1);

#elif ID_AM==001
	LCD_SetCursor(xStart+xLong-1,312-yStart+yLong-1);
     
#elif ID_AM==010
	LCD_SetCursor(xStart,312-yStart+yLong-1);
     
#elif ID_AM==011 
	LCD_SetCursor(xStart,312-yStart+yLong-1);
     
#elif ID_AM==100
	LCD_SetCursor(xStart+xLong-1,312-yStart);     
     
#elif ID_AM==101
	LCD_SetCursor(xStart+xLong-1,312-yStart);     
     
#elif ID_AM==110
	LCD_SetCursor(xStart,312-yStart); 
     
#elif ID_AM==111
	LCD_SetCursor(xStart,312-yStart);  
     
#endif
     
	LCD_WR_REG(0x0050,xStart);//水平 GRAM起始位置
	LCD_WR_REG(0x0051,xStart+xLong-1);//水平GRAM终止位置
	LCD_WR_REG(0x0052,312-yStart);//垂直GRAM起始位置
	LCD_WR_REG(0x0053,312-yStart+yLong-1);//垂直GRAM终止位置 
}


/*************************************************
函数名：Lcd光标起点定位函数
功能：指定320240液晶上的一点作为写数据的起始点
入口参数：x 坐标 0~239
          y 坐标 0~319
返回值：无
*************************************************/
void LCD_SetCursor(unsigned int Xpos, unsigned int Ypos)
{
    2600:	0f 93       	push	r16
    2602:	1f 93       	push	r17
    2604:	8b 01       	movw	r16, r22
 // CLR_RS;
  LCD_WR_REG(0x20, Xpos);
    2606:	bc 01       	movw	r22, r24
    2608:	80 e2       	ldi	r24, 0x20	; 32
    260a:	90 e0       	ldi	r25, 0x00	; 0
    260c:	0e 94 30 11 	call	0x2260 <LCD_WR_REG>
  LCD_WR_REG(0x21, Ypos);
    2610:	b8 01       	movw	r22, r16
    2612:	81 e2       	ldi	r24, 0x21	; 33
    2614:	90 e0       	ldi	r25, 0x00	; 0
    2616:	0e 94 30 11 	call	0x2260 <LCD_WR_REG>
    261a:	1f 91       	pop	r17
    261c:	0f 91       	pop	r16
    261e:	08 95       	ret

00002620 <Lcd_SetBox>:
    2620:	af 92       	push	r10
    2622:	bf 92       	push	r11
    2624:	cf 92       	push	r12
    2626:	df 92       	push	r13
    2628:	ef 92       	push	r14
    262a:	ff 92       	push	r15
    262c:	0f 93       	push	r16
    262e:	1f 93       	push	r17
    2630:	8c 01       	movw	r16, r24
    2632:	5b 01       	movw	r10, r22
    2634:	6a 01       	movw	r12, r20
    2636:	79 01       	movw	r14, r18
    2638:	e6 1a       	sub	r14, r22
    263a:	f7 0a       	sbc	r15, r23
    263c:	87 e3       	ldi	r24, 0x37	; 55
    263e:	91 e0       	ldi	r25, 0x01	; 1
    2640:	e8 0e       	add	r14, r24
    2642:	f9 1e       	adc	r15, r25
    2644:	b7 01       	movw	r22, r14
    2646:	c8 01       	movw	r24, r16
    2648:	0e 94 00 13 	call	0x2600 <LCD_SetCursor>
    264c:	b8 01       	movw	r22, r16
    264e:	80 e5       	ldi	r24, 0x50	; 80
    2650:	90 e0       	ldi	r25, 0x00	; 0
    2652:	0e 94 30 11 	call	0x2260 <LCD_WR_REG>
    2656:	0c 0d       	add	r16, r12
    2658:	1d 1d       	adc	r17, r13
    265a:	01 50       	subi	r16, 0x01	; 1
    265c:	10 40       	sbci	r17, 0x00	; 0
    265e:	b8 01       	movw	r22, r16
    2660:	81 e5       	ldi	r24, 0x51	; 81
    2662:	90 e0       	ldi	r25, 0x00	; 0
    2664:	0e 94 30 11 	call	0x2260 <LCD_WR_REG>
    2668:	88 e3       	ldi	r24, 0x38	; 56
    266a:	91 e0       	ldi	r25, 0x01	; 1
    266c:	8a 19       	sub	r24, r10
    266e:	9b 09       	sbc	r25, r11
    2670:	bc 01       	movw	r22, r24
    2672:	82 e5       	ldi	r24, 0x52	; 82
    2674:	90 e0       	ldi	r25, 0x00	; 0
    2676:	0e 94 30 11 	call	0x2260 <LCD_WR_REG>
    267a:	b7 01       	movw	r22, r14
    267c:	83 e5       	ldi	r24, 0x53	; 83
    267e:	90 e0       	ldi	r25, 0x00	; 0
    2680:	0e 94 30 11 	call	0x2260 <LCD_WR_REG>
    2684:	1f 91       	pop	r17
    2686:	0f 91       	pop	r16
    2688:	ff 90       	pop	r15
    268a:	ef 90       	pop	r14
    268c:	df 90       	pop	r13
    268e:	cf 90       	pop	r12
    2690:	bf 90       	pop	r11
    2692:	af 90       	pop	r10
    2694:	08 95       	ret

00002696 <LCD_write_SUM>:
    2696:	bf 92       	push	r11
    2698:	cf 92       	push	r12
    269a:	df 92       	push	r13
    269c:	ef 92       	push	r14
    269e:	ff 92       	push	r15
    26a0:	0f 93       	push	r16
    26a2:	1f 93       	push	r17
    26a4:	cf 93       	push	r28
    26a6:	fb 01       	movw	r30, r22
    26a8:	b4 2e       	mov	r11, r20
    26aa:	69 01       	movw	r12, r18
    26ac:	78 01       	movw	r14, r16
    26ae:	28 e0       	ldi	r18, 0x08	; 8
    26b0:	30 e0       	ldi	r19, 0x00	; 0
    26b2:	4f e0       	ldi	r20, 0x0F	; 15
    26b4:	50 e0       	ldi	r21, 0x00	; 0
    26b6:	bc 01       	movw	r22, r24
    26b8:	cf 01       	movw	r24, r30
    26ba:	0e 94 10 13 	call	0x2620 <Lcd_SetBox>
    26be:	82 e2       	ldi	r24, 0x22	; 34
    26c0:	90 e0       	ldi	r25, 0x00	; 0
    26c2:	0e 94 0e 11 	call	0x221c <LCD_WR_REG16>
    26c6:	00 e0       	ldi	r16, 0x00	; 0
    26c8:	eb 2d       	mov	r30, r11
    26ca:	ff 27       	eor	r31, r31
    26cc:	44 e0       	ldi	r20, 0x04	; 4
    26ce:	ee 0f       	add	r30, r30
    26d0:	ff 1f       	adc	r31, r31
    26d2:	4a 95       	dec	r20
    26d4:	e1 f7       	brne	.-8      	; 0x26ce <LCD_write_SUM+0x38>
    26d6:	e0 0f       	add	r30, r16
    26d8:	f1 1d       	adc	r31, r1
    26da:	ec 54       	subi	r30, 0x4C	; 76
    26dc:	fd 4f       	sbci	r31, 0xFD	; 253
    26de:	c4 91       	lpm	r28, Z
    26e0:	17 e0       	ldi	r17, 0x07	; 7
    26e2:	c7 ff       	sbrs	r28, 7
    26e4:	02 c0       	rjmp	.+4      	; 0x26ea <LCD_write_SUM+0x54>
    26e6:	c6 01       	movw	r24, r12
    26e8:	01 c0       	rjmp	.+2      	; 0x26ec <LCD_write_SUM+0x56>
    26ea:	c7 01       	movw	r24, r14
    26ec:	0e 94 f0 10 	call	0x21e0 <LCD_WR_DATA16>
    26f0:	cc 0f       	add	r28, r28
    26f2:	11 50       	subi	r17, 0x01	; 1
    26f4:	17 ff       	sbrs	r17, 7
    26f6:	f5 cf       	rjmp	.-22     	; 0x26e2 <LCD_write_SUM+0x4c>
    26f8:	0f 5f       	subi	r16, 0xFF	; 255
    26fa:	00 31       	cpi	r16, 0x10	; 16
    26fc:	28 f3       	brcs	.-54     	; 0x26c8 <LCD_write_SUM+0x32>
    26fe:	cf 91       	pop	r28
    2700:	1f 91       	pop	r17
    2702:	0f 91       	pop	r16
    2704:	ff 90       	pop	r15
    2706:	ef 90       	pop	r14
    2708:	df 90       	pop	r13
    270a:	cf 90       	pop	r12
    270c:	bf 90       	pop	r11
    270e:	08 95       	ret

00002710 <LCD_write_english_string>:
    2710:	af 92       	push	r10
    2712:	bf 92       	push	r11
    2714:	cf 92       	push	r12
    2716:	df 92       	push	r13
    2718:	ef 92       	push	r14
    271a:	ff 92       	push	r15
    271c:	0f 93       	push	r16
    271e:	1f 93       	push	r17
    2720:	cf 93       	push	r28
    2722:	df 93       	push	r29
    2724:	fc 01       	movw	r30, r24
    2726:	5b 01       	movw	r10, r22
    2728:	7a 01       	movw	r14, r20
    272a:	69 01       	movw	r12, r18
    272c:	da 01       	movw	r26, r20
    272e:	8c 91       	ld	r24, X
    2730:	88 23       	and	r24, r24
    2732:	a9 f0       	breq	.+42     	; 0x275e <LCD_write_english_string+0x4e>
    2734:	ef 01       	movw	r28, r30
    2736:	28 e0       	ldi	r18, 0x08	; 8
    2738:	30 e0       	ldi	r19, 0x00	; 0
    273a:	4f e0       	ldi	r20, 0x0F	; 15
    273c:	50 e0       	ldi	r21, 0x00	; 0
    273e:	be 01       	movw	r22, r28
    2740:	c5 01       	movw	r24, r10
    2742:	0e 94 10 13 	call	0x2620 <Lcd_SetBox>
    2746:	a8 01       	movw	r20, r16
    2748:	b6 01       	movw	r22, r12
    274a:	f7 01       	movw	r30, r14
    274c:	81 91       	ld	r24, Z+
    274e:	7f 01       	movw	r14, r30
    2750:	0e 94 cc 12 	call	0x2598 <LCD_write_english>
    2754:	28 96       	adiw	r28, 0x08	; 8
    2756:	d7 01       	movw	r26, r14
    2758:	8c 91       	ld	r24, X
    275a:	88 23       	and	r24, r24
    275c:	61 f7       	brne	.-40     	; 0x2736 <LCD_write_english_string+0x26>
    275e:	df 91       	pop	r29
    2760:	cf 91       	pop	r28
    2762:	1f 91       	pop	r17
    2764:	0f 91       	pop	r16
    2766:	ff 90       	pop	r15
    2768:	ef 90       	pop	r14
    276a:	df 90       	pop	r13
    276c:	cf 90       	pop	r12
    276e:	bf 90       	pop	r11
    2770:	af 90       	pop	r10
    2772:	08 95       	ret

00002774 <GUI_Point>:
}

/*
void Test_tu(void)
{
   unsigned int i;
  // unsigned char  val;
  LCD_WR_REG(0x0020,20);//Lcd光标GRAM水平起始位置
  LCD_WR_REG(0x0021,105); //Lcd光标垂直GRAM起始位置     

  LCD_WR_REG(0x0050,20);//水平 GRAM起始位置
  LCD_WR_REG(0x0051,207);//水平GRAM终止位置
  LCD_WR_REG(0x0052,105);//垂直GRAM起始位置
  LCD_WR_REG(0x0053,207);//垂直GRAM终止位置 
  LCD_WR_REG16(0x0022);
    	
   LCD_RD_H();
   LCD_RS_H();
   LCD_CS_L(); 
  for (i=0;i<21218;)
  { 

     LCD_WR_L();
	 //LCD_WR_L();
     DATA_LCD_PORT=pgm_read_byte(&gImage[i++]);
     LCD_WR_H();

     LCD_WR_L();
	 //LCD_WR_L();
     DATA_LCD_PORT=pgm_read_byte(&gImage[i++]);
     LCD_WR_H(); 

	}
   LCD_CS_H();
}

*/

 void  GUI_Point(unsigned int x, unsigned int y,unsigned int color) 
 {
    2774:	ef 92       	push	r14
    2776:	ff 92       	push	r15
    2778:	0f 93       	push	r16
    277a:	1f 93       	push	r17
    277c:	8b 01       	movw	r16, r22
    277e:	7a 01       	movw	r14, r20
     LCD_WR_REG(0x0020,x);//Lcd光标GRAM水平起始位置
    2780:	bc 01       	movw	r22, r24
    2782:	80 e2       	ldi	r24, 0x20	; 32
    2784:	90 e0       	ldi	r25, 0x00	; 0
    2786:	0e 94 30 11 	call	0x2260 <LCD_WR_REG>
     LCD_WR_REG(0x0021,y); //Lcd光标垂直GRAM起始位置     
    278a:	b8 01       	movw	r22, r16
    278c:	81 e2       	ldi	r24, 0x21	; 33
    278e:	90 e0       	ldi	r25, 0x00	; 0
    2790:	0e 94 30 11 	call	0x2260 <LCD_WR_REG>

   //  LCD_WR_REG(0x0050,x);//水平 GRAM起始位置
   //  LCD_WR_REG(0x0051,x);//水平GRAM终止位置
   //  LCD_WR_REG(0x0052,y);//垂直GRAM起始位置
   //  LCD_WR_REG(0x0053,y);//垂直GRAM终止位置 
	 LCD_WR_REG16(0x0022); 
    2794:	82 e2       	ldi	r24, 0x22	; 34
    2796:	90 e0       	ldi	r25, 0x00	; 0
    2798:	0e 94 0e 11 	call	0x221c <LCD_WR_REG16>
	 LCD_WR_DATA16(color);   
    279c:	c7 01       	movw	r24, r14
    279e:	0e 94 f0 10 	call	0x21e0 <LCD_WR_DATA16>
    27a2:	1f 91       	pop	r17
    27a4:	0f 91       	pop	r16
    27a6:	ff 90       	pop	r15
    27a8:	ef 90       	pop	r14
    27aa:	08 95       	ret

000027ac <Test>:
	 
	 
 
 }

void Test(void)
{       
    27ac:	af 92       	push	r10
    27ae:	bf 92       	push	r11
    27b0:	cf 92       	push	r12
    27b2:	df 92       	push	r13
    27b4:	ef 92       	push	r14
    27b6:	ff 92       	push	r15
    27b8:	0f 93       	push	r16
    27ba:	1f 93       	push	r17
        unsigned long n,i;
       LCD_WR_REG(0x0020,0x0000);//GRAM水平起始位置
    27bc:	60 e0       	ldi	r22, 0x00	; 0
    27be:	70 e0       	ldi	r23, 0x00	; 0
    27c0:	80 e2       	ldi	r24, 0x20	; 32
    27c2:	90 e0       	ldi	r25, 0x00	; 0
    27c4:	0e 94 30 11 	call	0x2260 <LCD_WR_REG>
       LCD_WR_REG(0x0021,0x0000); 
    27c8:	60 e0       	ldi	r22, 0x00	; 0
    27ca:	70 e0       	ldi	r23, 0x00	; 0
    27cc:	81 e2       	ldi	r24, 0x21	; 33
    27ce:	90 e0       	ldi	r25, 0x00	; 0
    27d0:	0e 94 30 11 	call	0x2260 <LCD_WR_REG>
        for(i=0;i<7;i++)
    27d4:	ee 24       	eor	r14, r14
    27d6:	ff 24       	eor	r15, r15
    27d8:	87 01       	movw	r16, r14
          
        {       
        
            
	        LCD_WR_REG(0x0050,0x00);//水平 GRAM起始位置
    27da:	60 e0       	ldi	r22, 0x00	; 0
    27dc:	70 e0       	ldi	r23, 0x00	; 0
    27de:	80 e5       	ldi	r24, 0x50	; 80
    27e0:	90 e0       	ldi	r25, 0x00	; 0
    27e2:	0e 94 30 11 	call	0x2260 <LCD_WR_REG>
	        LCD_WR_REG(0x0051,239);//水平GRAM终止位置
    27e6:	6f ee       	ldi	r22, 0xEF	; 239
    27e8:	70 e0       	ldi	r23, 0x00	; 0
    27ea:	81 e5       	ldi	r24, 0x51	; 81
    27ec:	90 e0       	ldi	r25, 0x00	; 0
    27ee:	0e 94 30 11 	call	0x2260 <LCD_WR_REG>
	        LCD_WR_REG(0x0052,0x00);//垂直GRAM起始位置
    27f2:	60 e0       	ldi	r22, 0x00	; 0
    27f4:	70 e0       	ldi	r23, 0x00	; 0
    27f6:	82 e5       	ldi	r24, 0x52	; 82
    27f8:	90 e0       	ldi	r25, 0x00	; 0
    27fa:	0e 94 30 11 	call	0x2260 <LCD_WR_REG>
	        LCD_WR_REG(0x0053,319);//垂直GRAM终止位置 
    27fe:	6f e3       	ldi	r22, 0x3F	; 63
    2800:	71 e0       	ldi	r23, 0x01	; 1
    2802:	83 e5       	ldi	r24, 0x53	; 83
    2804:	90 e0       	ldi	r25, 0x00	; 0
    2806:	0e 94 30 11 	call	0x2260 <LCD_WR_REG>
           
            LCD_WR_REG16(0x0022);       
    280a:	82 e2       	ldi	r24, 0x22	; 34
    280c:	90 e0       	ldi	r25, 0x00	; 0
    280e:	0e 94 0e 11 	call	0x221c <LCD_WR_REG16>
    2812:	5f ef       	ldi	r21, 0xFF	; 255
    2814:	a5 2e       	mov	r10, r21
    2816:	5b e2       	ldi	r21, 0x2B	; 43
    2818:	b5 2e       	mov	r11, r21
    281a:	51 e0       	ldi	r21, 0x01	; 1
    281c:	c5 2e       	mov	r12, r21
    281e:	d1 2c       	mov	r13, r1
                for(n=0;n<76800;n++)
                { 
                  
                  
                  if(i==0)LCD_WR_DATA16(BLUE);   
    2820:	e1 14       	cp	r14, r1
    2822:	f1 04       	cpc	r15, r1
    2824:	01 05       	cpc	r16, r1
    2826:	11 05       	cpc	r17, r1
    2828:	21 f4       	brne	.+8      	; 0x2832 <Test+0x86>
    282a:	8f e1       	ldi	r24, 0x1F	; 31
    282c:	90 e0       	ldi	r25, 0x00	; 0
    282e:	0e 94 f0 10 	call	0x21e0 <LCD_WR_DATA16>
                  if(i==1)LCD_WR_DATA16(RED); 
    2832:	81 e0       	ldi	r24, 0x01	; 1
    2834:	e8 16       	cp	r14, r24
    2836:	f1 04       	cpc	r15, r1
    2838:	01 05       	cpc	r16, r1
    283a:	11 05       	cpc	r17, r1
    283c:	21 f4       	brne	.+8      	; 0x2846 <Test+0x9a>
    283e:	80 e0       	ldi	r24, 0x00	; 0
    2840:	98 ef       	ldi	r25, 0xF8	; 248
    2842:	0e 94 f0 10 	call	0x21e0 <LCD_WR_DATA16>
                  if(i==2)LCD_WR_DATA16(GREEN);
    2846:	82 e0       	ldi	r24, 0x02	; 2
    2848:	e8 16       	cp	r14, r24
    284a:	f1 04       	cpc	r15, r1
    284c:	01 05       	cpc	r16, r1
    284e:	11 05       	cpc	r17, r1
    2850:	21 f4       	brne	.+8      	; 0x285a <Test+0xae>
    2852:	80 ee       	ldi	r24, 0xE0	; 224
    2854:	97 e0       	ldi	r25, 0x07	; 7
    2856:	0e 94 f0 10 	call	0x21e0 <LCD_WR_DATA16>
                  if(i==3)LCD_WR_DATA16(CYAN); 
    285a:	83 e0       	ldi	r24, 0x03	; 3
    285c:	e8 16       	cp	r14, r24
    285e:	f1 04       	cpc	r15, r1
    2860:	01 05       	cpc	r16, r1
    2862:	11 05       	cpc	r17, r1
    2864:	21 f4       	brne	.+8      	; 0x286e <Test+0xc2>
    2866:	8f ef       	ldi	r24, 0xFF	; 255
    2868:	97 e0       	ldi	r25, 0x07	; 7
    286a:	0e 94 f0 10 	call	0x21e0 <LCD_WR_DATA16>
                  if(i==4)LCD_WR_DATA16(MAGENTA); 
    286e:	84 e0       	ldi	r24, 0x04	; 4
    2870:	e8 16       	cp	r14, r24
    2872:	f1 04       	cpc	r15, r1
    2874:	01 05       	cpc	r16, r1
    2876:	11 05       	cpc	r17, r1
    2878:	21 f4       	brne	.+8      	; 0x2882 <Test+0xd6>
    287a:	8f e1       	ldi	r24, 0x1F	; 31
    287c:	98 ef       	ldi	r25, 0xF8	; 248
    287e:	0e 94 f0 10 	call	0x21e0 <LCD_WR_DATA16>
                  if(i==5)LCD_WR_DATA16(YELLOW);
    2882:	85 e0       	ldi	r24, 0x05	; 5
    2884:	e8 16       	cp	r14, r24
    2886:	f1 04       	cpc	r15, r1
    2888:	01 05       	cpc	r16, r1
    288a:	11 05       	cpc	r17, r1
    288c:	21 f4       	brne	.+8      	; 0x2896 <Test+0xea>
    288e:	80 ee       	ldi	r24, 0xE0	; 224
    2890:	9f ef       	ldi	r25, 0xFF	; 255
    2892:	0e 94 f0 10 	call	0x21e0 <LCD_WR_DATA16>
				  
                  if(i==6)LCD_WR_DATA16(BLACK); 
    2896:	86 e0       	ldi	r24, 0x06	; 6
    2898:	e8 16       	cp	r14, r24
    289a:	f1 04       	cpc	r15, r1
    289c:	01 05       	cpc	r16, r1
    289e:	11 05       	cpc	r17, r1
    28a0:	21 f4       	brne	.+8      	; 0x28aa <Test+0xfe>
    28a2:	80 e0       	ldi	r24, 0x00	; 0
    28a4:	90 e0       	ldi	r25, 0x00	; 0
    28a6:	0e 94 f0 10 	call	0x21e0 <LCD_WR_DATA16>
    28aa:	08 94       	sec
    28ac:	a1 08       	sbc	r10, r1
    28ae:	b1 08       	sbc	r11, r1
    28b0:	c1 08       	sbc	r12, r1
    28b2:	d1 08       	sbc	r13, r1
    28b4:	d7 fe       	sbrs	r13, 7
    28b6:	b4 cf       	rjmp	.-152    	; 0x2820 <Test+0x74>
                }    
                 delay_ms(100);                   
    28b8:	84 e6       	ldi	r24, 0x64	; 100
    28ba:	90 e0       	ldi	r25, 0x00	; 0
    28bc:	0e 94 dc 10 	call	0x21b8 <delay_ms>
    28c0:	08 94       	sec
    28c2:	e1 1c       	adc	r14, r1
    28c4:	f1 1c       	adc	r15, r1
    28c6:	01 1d       	adc	r16, r1
    28c8:	11 1d       	adc	r17, r1
    28ca:	87 e0       	ldi	r24, 0x07	; 7
    28cc:	e8 16       	cp	r14, r24
    28ce:	f1 04       	cpc	r15, r1
    28d0:	01 05       	cpc	r16, r1
    28d2:	11 05       	cpc	r17, r1
    28d4:	08 f4       	brcc	.+2      	; 0x28d8 <Test+0x12c>
    28d6:	81 cf       	rjmp	.-254    	; 0x27da <Test+0x2e>
    28d8:	1f 91       	pop	r17
    28da:	0f 91       	pop	r16
    28dc:	ff 90       	pop	r15
    28de:	ef 90       	pop	r14
    28e0:	df 90       	pop	r13
    28e2:	cf 90       	pop	r12
    28e4:	bf 90       	pop	r11
    28e6:	af 90       	pop	r10
    28e8:	08 95       	ret

000028ea <malloc>:
    28ea:	cf 93       	push	r28
    28ec:	df 93       	push	r29
    28ee:	ac 01       	movw	r20, r24
    28f0:	02 97       	sbiw	r24, 0x02	; 2
    28f2:	10 f4       	brcc	.+4      	; 0x28f8 <malloc+0xe>
    28f4:	42 e0       	ldi	r20, 0x02	; 2
    28f6:	50 e0       	ldi	r21, 0x00	; 0
    28f8:	20 e0       	ldi	r18, 0x00	; 0
    28fa:	30 e0       	ldi	r19, 0x00	; 0
    28fc:	a0 91 56 01 	lds	r26, 0x0156
    2900:	b0 91 57 01 	lds	r27, 0x0157
    2904:	bd 01       	movw	r22, r26
    2906:	f9 01       	movw	r30, r18
    2908:	10 97       	sbiw	r26, 0x00	; 0
    290a:	09 f4       	brne	.+2      	; 0x290e <malloc+0x24>
    290c:	4c c0       	rjmp	.+152    	; 0x29a6 <malloc+0xbc>
    290e:	8d 91       	ld	r24, X+
    2910:	9c 91       	ld	r25, X
    2912:	11 97       	sbiw	r26, 0x01	; 1
    2914:	84 17       	cp	r24, r20
    2916:	95 07       	cpc	r25, r21
    2918:	31 f1       	breq	.+76     	; 0x2966 <malloc+0x7c>
    291a:	48 17       	cp	r20, r24
    291c:	59 07       	cpc	r21, r25
    291e:	38 f4       	brcc	.+14     	; 0x292e <malloc+0x44>
    2920:	21 15       	cp	r18, r1
    2922:	31 05       	cpc	r19, r1
    2924:	19 f0       	breq	.+6      	; 0x292c <malloc+0x42>
    2926:	82 17       	cp	r24, r18
    2928:	93 07       	cpc	r25, r19
    292a:	08 f4       	brcc	.+2      	; 0x292e <malloc+0x44>
    292c:	9c 01       	movw	r18, r24
    292e:	fd 01       	movw	r30, r26
    2930:	a2 81       	ldd	r26, Z+2	; 0x02
    2932:	b3 81       	ldd	r27, Z+3	; 0x03
    2934:	10 97       	sbiw	r26, 0x00	; 0
    2936:	59 f7       	brne	.-42     	; 0x290e <malloc+0x24>
    2938:	21 15       	cp	r18, r1
    293a:	31 05       	cpc	r19, r1
    293c:	a1 f1       	breq	.+104    	; 0x29a6 <malloc+0xbc>
    293e:	c9 01       	movw	r24, r18
    2940:	84 1b       	sub	r24, r20
    2942:	95 0b       	sbc	r25, r21
    2944:	04 97       	sbiw	r24, 0x04	; 4
    2946:	08 f4       	brcc	.+2      	; 0x294a <malloc+0x60>
    2948:	a9 01       	movw	r20, r18
    294a:	db 01       	movw	r26, r22
    294c:	e0 e0       	ldi	r30, 0x00	; 0
    294e:	f0 e0       	ldi	r31, 0x00	; 0
    2950:	10 97       	sbiw	r26, 0x00	; 0
    2952:	49 f1       	breq	.+82     	; 0x29a6 <malloc+0xbc>
    2954:	8d 91       	ld	r24, X+
    2956:	9c 91       	ld	r25, X
    2958:	11 97       	sbiw	r26, 0x01	; 1
    295a:	82 17       	cp	r24, r18
    295c:	93 07       	cpc	r25, r19
    295e:	f9 f4       	brne	.+62     	; 0x299e <malloc+0xb4>
    2960:	42 17       	cp	r20, r18
    2962:	53 07       	cpc	r21, r19
    2964:	79 f4       	brne	.+30     	; 0x2984 <malloc+0x9a>
    2966:	ed 01       	movw	r28, r26
    2968:	8a 81       	ldd	r24, Y+2	; 0x02
    296a:	9b 81       	ldd	r25, Y+3	; 0x03
    296c:	30 97       	sbiw	r30, 0x00	; 0
    296e:	19 f0       	breq	.+6      	; 0x2976 <malloc+0x8c>
    2970:	93 83       	std	Z+3, r25	; 0x03
    2972:	82 83       	std	Z+2, r24	; 0x02
    2974:	04 c0       	rjmp	.+8      	; 0x297e <malloc+0x94>
    2976:	90 93 57 01 	sts	0x0157, r25
    297a:	80 93 56 01 	sts	0x0156, r24
    297e:	cd 01       	movw	r24, r26
    2980:	02 96       	adiw	r24, 0x02	; 2
    2982:	4a c0       	rjmp	.+148    	; 0x2a18 <malloc+0x12e>
    2984:	24 1b       	sub	r18, r20
    2986:	35 0b       	sbc	r19, r21
    2988:	fd 01       	movw	r30, r26
    298a:	e2 0f       	add	r30, r18
    298c:	f3 1f       	adc	r31, r19
    298e:	41 93       	st	Z+, r20
    2990:	51 93       	st	Z+, r21
    2992:	22 50       	subi	r18, 0x02	; 2
    2994:	30 40       	sbci	r19, 0x00	; 0
    2996:	2d 93       	st	X+, r18
    2998:	3c 93       	st	X, r19
    299a:	cf 01       	movw	r24, r30
    299c:	3d c0       	rjmp	.+122    	; 0x2a18 <malloc+0x12e>
    299e:	fd 01       	movw	r30, r26
    29a0:	a2 81       	ldd	r26, Z+2	; 0x02
    29a2:	b3 81       	ldd	r27, Z+3	; 0x03
    29a4:	d5 cf       	rjmp	.-86     	; 0x2950 <malloc+0x66>
    29a6:	80 91 54 01 	lds	r24, 0x0154
    29aa:	90 91 55 01 	lds	r25, 0x0155
    29ae:	89 2b       	or	r24, r25
    29b0:	41 f4       	brne	.+16     	; 0x29c2 <malloc+0xd8>
    29b2:	80 91 1c 01 	lds	r24, 0x011C
    29b6:	90 91 1d 01 	lds	r25, 0x011D
    29ba:	90 93 55 01 	sts	0x0155, r25
    29be:	80 93 54 01 	sts	0x0154, r24
    29c2:	e0 91 1a 01 	lds	r30, 0x011A
    29c6:	f0 91 1b 01 	lds	r31, 0x011B
    29ca:	30 97       	sbiw	r30, 0x00	; 0
    29cc:	41 f4       	brne	.+16     	; 0x29de <malloc+0xf4>
    29ce:	ed b7       	in	r30, 0x3d	; 61
    29d0:	fe b7       	in	r31, 0x3e	; 62
    29d2:	80 91 1e 01 	lds	r24, 0x011E
    29d6:	90 91 1f 01 	lds	r25, 0x011F
    29da:	e8 1b       	sub	r30, r24
    29dc:	f9 0b       	sbc	r31, r25
    29de:	a0 91 54 01 	lds	r26, 0x0154
    29e2:	b0 91 55 01 	lds	r27, 0x0155
    29e6:	9f 01       	movw	r18, r30
    29e8:	2a 1b       	sub	r18, r26
    29ea:	3b 0b       	sbc	r19, r27
    29ec:	24 17       	cp	r18, r20
    29ee:	35 07       	cpc	r19, r21
    29f0:	88 f0       	brcs	.+34     	; 0x2a14 <malloc+0x12a>
    29f2:	ca 01       	movw	r24, r20
    29f4:	02 96       	adiw	r24, 0x02	; 2
    29f6:	28 17       	cp	r18, r24
    29f8:	39 07       	cpc	r19, r25
    29fa:	60 f0       	brcs	.+24     	; 0x2a14 <malloc+0x12a>
    29fc:	cd 01       	movw	r24, r26
    29fe:	84 0f       	add	r24, r20
    2a00:	95 1f       	adc	r25, r21
    2a02:	02 96       	adiw	r24, 0x02	; 2
    2a04:	90 93 55 01 	sts	0x0155, r25
    2a08:	80 93 54 01 	sts	0x0154, r24
    2a0c:	4d 93       	st	X+, r20
    2a0e:	5d 93       	st	X+, r21
    2a10:	cd 01       	movw	r24, r26
    2a12:	02 c0       	rjmp	.+4      	; 0x2a18 <malloc+0x12e>
    2a14:	80 e0       	ldi	r24, 0x00	; 0
    2a16:	90 e0       	ldi	r25, 0x00	; 0
    2a18:	df 91       	pop	r29
    2a1a:	cf 91       	pop	r28
    2a1c:	08 95       	ret

00002a1e <free>:
    2a1e:	cf 93       	push	r28
    2a20:	df 93       	push	r29
    2a22:	00 97       	sbiw	r24, 0x00	; 0
    2a24:	09 f4       	brne	.+2      	; 0x2a28 <free+0xa>
    2a26:	54 c0       	rjmp	.+168    	; 0x2ad0 <free+0xb2>
    2a28:	dc 01       	movw	r26, r24
    2a2a:	12 97       	sbiw	r26, 0x02	; 2
    2a2c:	ed 01       	movw	r28, r26
    2a2e:	1b 82       	std	Y+3, r1	; 0x03
    2a30:	1a 82       	std	Y+2, r1	; 0x02
    2a32:	80 91 56 01 	lds	r24, 0x0156
    2a36:	90 91 57 01 	lds	r25, 0x0157
    2a3a:	00 97       	sbiw	r24, 0x00	; 0
    2a3c:	21 f1       	breq	.+72     	; 0x2a86 <free+0x68>
    2a3e:	fc 01       	movw	r30, r24
    2a40:	40 e0       	ldi	r20, 0x00	; 0
    2a42:	50 e0       	ldi	r21, 0x00	; 0
    2a44:	ea 17       	cp	r30, r26
    2a46:	fb 07       	cpc	r31, r27
    2a48:	18 f1       	brcs	.+70     	; 0x2a90 <free+0x72>
    2a4a:	ed 01       	movw	r28, r26
    2a4c:	fb 83       	std	Y+3, r31	; 0x03
    2a4e:	ea 83       	std	Y+2, r30	; 0x02
    2a50:	2d 91       	ld	r18, X+
    2a52:	3c 91       	ld	r19, X
    2a54:	11 97       	sbiw	r26, 0x01	; 1
    2a56:	c2 0f       	add	r28, r18
    2a58:	d3 1f       	adc	r29, r19
    2a5a:	ce 01       	movw	r24, r28
    2a5c:	02 96       	adiw	r24, 0x02	; 2
    2a5e:	8e 17       	cp	r24, r30
    2a60:	9f 07       	cpc	r25, r31
    2a62:	71 f4       	brne	.+28     	; 0x2a80 <free+0x62>
    2a64:	8a 81       	ldd	r24, Y+2	; 0x02
    2a66:	9b 81       	ldd	r25, Y+3	; 0x03
    2a68:	28 0f       	add	r18, r24
    2a6a:	39 1f       	adc	r19, r25
    2a6c:	2e 5f       	subi	r18, 0xFE	; 254
    2a6e:	3f 4f       	sbci	r19, 0xFF	; 255
    2a70:	11 96       	adiw	r26, 0x01	; 1
    2a72:	3c 93       	st	X, r19
    2a74:	2e 93       	st	-X, r18
    2a76:	82 81       	ldd	r24, Z+2	; 0x02
    2a78:	93 81       	ldd	r25, Z+3	; 0x03
    2a7a:	fd 01       	movw	r30, r26
    2a7c:	93 83       	std	Z+3, r25	; 0x03
    2a7e:	82 83       	std	Z+2, r24	; 0x02
    2a80:	41 15       	cp	r20, r1
    2a82:	51 05       	cpc	r21, r1
    2a84:	59 f4       	brne	.+22     	; 0x2a9c <free+0x7e>
    2a86:	b0 93 57 01 	sts	0x0157, r27
    2a8a:	a0 93 56 01 	sts	0x0156, r26
    2a8e:	20 c0       	rjmp	.+64     	; 0x2ad0 <free+0xb2>
    2a90:	af 01       	movw	r20, r30
    2a92:	02 80       	ldd	r0, Z+2	; 0x02
    2a94:	f3 81       	ldd	r31, Z+3	; 0x03
    2a96:	e0 2d       	mov	r30, r0
    2a98:	30 97       	sbiw	r30, 0x00	; 0
    2a9a:	a1 f6       	brne	.-88     	; 0x2a44 <free+0x26>
    2a9c:	ea 01       	movw	r28, r20
    2a9e:	bb 83       	std	Y+3, r27	; 0x03
    2aa0:	aa 83       	std	Y+2, r26	; 0x02
    2aa2:	ca 01       	movw	r24, r20
    2aa4:	02 96       	adiw	r24, 0x02	; 2
    2aa6:	28 81       	ld	r18, Y
    2aa8:	39 81       	ldd	r19, Y+1	; 0x01
    2aaa:	82 0f       	add	r24, r18
    2aac:	93 1f       	adc	r25, r19
    2aae:	8a 17       	cp	r24, r26
    2ab0:	9b 07       	cpc	r25, r27
    2ab2:	71 f4       	brne	.+28     	; 0x2ad0 <free+0xb2>
    2ab4:	8d 91       	ld	r24, X+
    2ab6:	9c 91       	ld	r25, X
    2ab8:	11 97       	sbiw	r26, 0x01	; 1
    2aba:	28 0f       	add	r18, r24
    2abc:	39 1f       	adc	r19, r25
    2abe:	2e 5f       	subi	r18, 0xFE	; 254
    2ac0:	3f 4f       	sbci	r19, 0xFF	; 255
    2ac2:	39 83       	std	Y+1, r19	; 0x01
    2ac4:	28 83       	st	Y, r18
    2ac6:	fd 01       	movw	r30, r26
    2ac8:	82 81       	ldd	r24, Z+2	; 0x02
    2aca:	93 81       	ldd	r25, Z+3	; 0x03
    2acc:	9b 83       	std	Y+3, r25	; 0x03
    2ace:	8a 83       	std	Y+2, r24	; 0x02
    2ad0:	df 91       	pop	r29
    2ad2:	cf 91       	pop	r28
    2ad4:	08 95       	ret

00002ad6 <__mulsi3>:
    2ad6:	62 9f       	mul	r22, r18
    2ad8:	d0 01       	movw	r26, r0
    2ada:	73 9f       	mul	r23, r19
    2adc:	f0 01       	movw	r30, r0
    2ade:	82 9f       	mul	r24, r18
    2ae0:	e0 0d       	add	r30, r0
    2ae2:	f1 1d       	adc	r31, r1
    2ae4:	64 9f       	mul	r22, r20
    2ae6:	e0 0d       	add	r30, r0
    2ae8:	f1 1d       	adc	r31, r1
    2aea:	92 9f       	mul	r25, r18
    2aec:	f0 0d       	add	r31, r0
    2aee:	83 9f       	mul	r24, r19
    2af0:	f0 0d       	add	r31, r0
    2af2:	74 9f       	mul	r23, r20
    2af4:	f0 0d       	add	r31, r0
    2af6:	65 9f       	mul	r22, r21
    2af8:	f0 0d       	add	r31, r0
    2afa:	99 27       	eor	r25, r25
    2afc:	72 9f       	mul	r23, r18
    2afe:	b0 0d       	add	r27, r0
    2b00:	e1 1d       	adc	r30, r1
    2b02:	f9 1f       	adc	r31, r25
    2b04:	63 9f       	mul	r22, r19
    2b06:	b0 0d       	add	r27, r0
    2b08:	e1 1d       	adc	r30, r1
    2b0a:	f9 1f       	adc	r31, r25
    2b0c:	bd 01       	movw	r22, r26
    2b0e:	cf 01       	movw	r24, r30
    2b10:	11 24       	eor	r1, r1
    2b12:	08 95       	ret

00002b14 <__eeprom_read_byte_1C1D1E>:
    2b14:	e1 99       	sbic	0x1c, 1	; 28
    2b16:	fe cf       	rjmp	.-4      	; 0x2b14 <__eeprom_read_byte_1C1D1E>
    2b18:	bf bb       	out	0x1f, r27	; 31
    2b1a:	ae bb       	out	0x1e, r26	; 30
    2b1c:	e0 9a       	sbi	0x1c, 0	; 28
    2b1e:	11 96       	adiw	r26, 0x01	; 1
    2b20:	0d b2       	in	r0, 0x1d	; 29
    2b22:	08 95       	ret

00002b24 <__eeprom_write_byte_1C1D1E>:
    2b24:	e1 99       	sbic	0x1c, 1	; 28
    2b26:	fe cf       	rjmp	.-4      	; 0x2b24 <__eeprom_write_byte_1C1D1E>
    2b28:	bf bb       	out	0x1f, r27	; 31
    2b2a:	ae bb       	out	0x1e, r26	; 30
    2b2c:	0d ba       	out	0x1d, r0	; 29
    2b2e:	11 96       	adiw	r26, 0x01	; 1
    2b30:	0f b6       	in	r0, 0x3f	; 63
    2b32:	f8 94       	cli
    2b34:	e2 9a       	sbi	0x1c, 2	; 28
    2b36:	e1 9a       	sbi	0x1c, 1	; 28
    2b38:	0f be       	out	0x3f, r0	; 63
    2b3a:	08 95       	ret
